Archive member included because of file (symbol)

C:\Program Files (x86)\VT3\resources\targets\TERA7\lib/\vt3_runtime\libvt3_runtime.a(vt3_main.obj)
                              c:/progra~2/codeso~1/source~1/bin/../arm-none-linux-gnueabi/libc/usr/lib/crt1.o (main)
C:\Program Files (x86)\VT3\resources\targets\TERA7\lib/\vt3_runtime\libvt3_runtime.a(vt3_pdf.obj)
                              C:\Program Files (x86)\VT3\resources\targets\TERA7\lib/\vt3_runtime\libvt3_runtime.a(vt3_main.obj) (vt3_sdcard_mount_async)
C:\Program Files (x86)\VT3\resources\targets\TERA7\lib/\vt3_runtime\libvt3_runtime.a(vt3_slaves.obj)
                              C:\Program Files (x86)\VT3\resources\targets\TERA7\lib/\vt3_runtime\libvt3_runtime.a(vt3_main.obj) (vt3_slaves_reference)
C:\Program Files (x86)\VT3\resources\targets\TERA7\lib/\vt3_runtime\libvt3_runtime.a(vt3_stats.obj)
                              C:\Program Files (x86)\VT3\resources\targets\TERA7\lib/\vt3_runtime\libvt3_runtime.a(vt3_main.obj) (GetVt3CpuStatistics)
C:\Program Files (x86)\VT3\resources\targets\TERA7\lib/\vt3_runtime\libvt3_runtime.a(vt3_task.obj)
                              C:\Program Files (x86)\VT3\resources\targets\TERA7\lib/\vt3_runtime\libvt3_runtime.a(vt3_main.obj) (init_periodic_task)
C:\Program Files (x86)\VT3\resources\targets\TERA7\lib/\vt3_runtime\libvt3_runtime.a(vt3_trend.obj)
                              C:\Program Files (x86)\VT3\resources\targets\TERA7\lib/\vt3_runtime\libvt3_runtime.a(vt3_main.obj) (vt3_trend_reference)
C:\Program Files (x86)\VT3\resources\targets\TERA7\lib/\vt3_runtime\libvt3_runtime.a(akima_interpolator.obj)
                              C:\Program Files (x86)\VT3\resources\targets\TERA7\lib/\vt3_runtime\libvt3_runtime.a(vt3_trend.obj) (akima_interpolator_free)
C:\Program Files (x86)\VT3\resources\targets\TERA7\lib/\vt3_runtime\libvt3_runtime.a(ieclib.obj)
                              C:\Program Files (x86)\VT3\resources\targets\TERA7\lib/\vt3_runtime\libvt3_runtime.a(vt3_main.obj) (vt3_fix_string_sizes)
C:\Program Files (x86)\VT3\resources\targets\TERA7\lib/\vt3_runtime\libvt3_runtime.a(lcd_dfb.obj)
                              C:\Program Files (x86)\VT3\resources\targets\TERA7\lib/\vt3_runtime\libvt3_runtime.a(vt3_pdf.obj) (getSuperDFB)
C:\Program Files (x86)\VT3\resources\targets\TERA7\lib/\vt3_runtime\libvt3_runtime.a(vt3_canlib.obj)
                              C:\Program Files (x86)\VT3\resources\targets\TERA7\lib/\vt3_runtime\libvt3_runtime.a(vt3_main.obj) (vt3_check_alive_nodes)
C:\Program Files (x86)\VT3\resources\targets\TERA7\lib/\vt3_runtime\libvt3_runtime.a(vt3_canlib_testable.obj)
                              C:\Program Files (x86)\VT3\resources\targets\TERA7\lib/\vt3_runtime\libvt3_runtime.a(vt3_canlib.obj) (vt3_apply_cobid_change)
C:\Program Files (x86)\VT3\resources\targets\TERA7\lib/\vt3_runtime\libvt3_runtime.a(vt3_elog.obj)
                              C:\Program Files (x86)\VT3\resources\targets\TERA7\lib/\vt3_runtime\libvt3_runtime.a(vt3_canlib.obj) (ALM_login_state)
C:\Program Files (x86)\VT3\resources\targets\TERA7\lib/\vt3_runtime\libvt3_runtime.a(vt3_lcd_3b6.obj)
                              C:\Program Files (x86)\VT3\resources\targets\TERA7\lib/\vt3_runtime\libvt3_runtime.a(vt3_main.obj) (vt3_release_shaped_strings_from_cache)
C:\Program Files (x86)\VT3\resources\targets\TERA7\lib/\vt3_runtime\libvt3_runtime.a(vt3_lcd_tl.obj)
                              C:\Program Files (x86)\VT3\resources\targets\TERA7\lib/\vt3_runtime\libvt3_runtime.a(vt3_main.obj) (vt3_virtual_keyboard_key_handler)
C:\Program Files (x86)\VT3\resources\targets\TERA7\lib/\vt3_runtime\libvt3_runtime.a(vt3_lcd_tl_testable.obj)
                              C:\Program Files (x86)\VT3\resources\targets\TERA7\lib/\vt3_runtime\libvt3_runtime.a(vt3_lcd_tl.obj) (vt3_indicator_touch_process_touch_knob_input)
c:/progra~2/codeso~1/source~1/bin/../lib/gcc/arm-none-linux-gnueabi/4.4.1\libgcc.a(_udivsi3.o)
                              C:\Program Files (x86)\VT3\resources\targets\TERA7\lib/\vt3_runtime\libvt3_runtime.a(vt3_pdf.obj) (__aeabi_uidiv)
c:/progra~2/codeso~1/source~1/bin/../lib/gcc/arm-none-linux-gnueabi/4.4.1\libgcc.a(_divsi3.o)
                              C:\Program Files (x86)\VT3\resources\targets\TERA7\lib/\vt3_runtime\libvt3_runtime.a(vt3_pdf.obj) (__aeabi_idiv)
c:/progra~2/codeso~1/source~1/bin/../lib/gcc/arm-none-linux-gnueabi/4.4.1\libgcc.a(_arm_addsubdf3.o)
                              C:\Program Files (x86)\VT3\resources\targets\TERA7\lib/\vt3_runtime\libvt3_runtime.a(vt3_trend.obj) (__aeabi_dsub)
c:/progra~2/codeso~1/source~1/bin/../lib/gcc/arm-none-linux-gnueabi/4.4.1\libgcc.a(_arm_muldivdf3.o)
                              C:\Program Files (x86)\VT3\resources\targets\TERA7\lib/\vt3_runtime\libvt3_runtime.a(vt3_main.obj) (__aeabi_dmul)
c:/progra~2/codeso~1/source~1/bin/../lib/gcc/arm-none-linux-gnueabi/4.4.1\libgcc.a(_arm_cmpdf2.o)
                              C:\Program Files (x86)\VT3\resources\targets\TERA7\lib/\vt3_runtime\libvt3_runtime.a(akima_interpolator.obj) (__aeabi_dcmpeq)
c:/progra~2/codeso~1/source~1/bin/../lib/gcc/arm-none-linux-gnueabi/4.4.1\libgcc.a(_arm_fixdfsi.o)
                              C:\Program Files (x86)\VT3\resources\targets\TERA7\lib/\vt3_runtime\libvt3_runtime.a(vt3_main.obj) (__aeabi_d2iz)
c:/progra~2/codeso~1/source~1/bin/../lib/gcc/arm-none-linux-gnueabi/4.4.1\libgcc.a(_arm_fixunsdfsi.o)
                              C:\Program Files (x86)\VT3\resources\targets\TERA7\lib/\vt3_runtime\libvt3_runtime.a(ieclib.obj) (__aeabi_d2uiz)
c:/progra~2/codeso~1/source~1/bin/../lib/gcc/arm-none-linux-gnueabi/4.4.1\libgcc.a(_arm_truncdfsf2.o)
                              C:\Program Files (x86)\VT3\resources\targets\TERA7\lib/\vt3_runtime\libvt3_runtime.a(vt3_trend.obj) (__aeabi_d2f)
c:/progra~2/codeso~1/source~1/bin/../lib/gcc/arm-none-linux-gnueabi/4.4.1\libgcc.a(_arm_addsubsf3.o)
                              C:\Program Files (x86)\VT3\resources\targets\TERA7\lib/\vt3_runtime\libvt3_runtime.a(vt3_trend.obj) (__aeabi_fsub)
c:/progra~2/codeso~1/source~1/bin/../lib/gcc/arm-none-linux-gnueabi/4.4.1\libgcc.a(_arm_muldivsf3.o)
                              C:\Program Files (x86)\VT3\resources\targets\TERA7\lib/\vt3_runtime\libvt3_runtime.a(vt3_trend.obj) (__aeabi_fmul)
c:/progra~2/codeso~1/source~1/bin/../lib/gcc/arm-none-linux-gnueabi/4.4.1\libgcc.a(_arm_cmpsf2.o)
                              C:\Program Files (x86)\VT3\resources\targets\TERA7\lib/\vt3_runtime\libvt3_runtime.a(ieclib.obj) (__aeabi_fcmpeq)
c:/progra~2/codeso~1/source~1/bin/../lib/gcc/arm-none-linux-gnueabi/4.4.1\libgcc.a(_arm_fixsfsi.o)
                              C:\Program Files (x86)\VT3\resources\targets\TERA7\lib/\vt3_runtime\libvt3_runtime.a(vt3_trend.obj) (__aeabi_f2iz)
c:/progra~2/codeso~1/source~1/bin/../lib/gcc/arm-none-linux-gnueabi/4.4.1\libgcc.a(_arm_fixunssfsi.o)
                              C:\Program Files (x86)\VT3\resources\targets\TERA7\lib/\vt3_runtime\libvt3_runtime.a(ieclib.obj) (__aeabi_f2uiz)
c:/progra~2/codeso~1/source~1/bin/../lib/gcc/arm-none-linux-gnueabi/4.4.1\libgcc.a(_aeabi_ldivmod.o)
                              C:\Program Files (x86)\VT3\resources\targets\TERA7\lib/\vt3_runtime\libvt3_runtime.a(ieclib.obj) (__aeabi_ldivmod)
c:/progra~2/codeso~1/source~1/bin/../lib/gcc/arm-none-linux-gnueabi/4.4.1\libgcc.a(_aeabi_uldivmod.o)
                              C:\Program Files (x86)\VT3\resources\targets\TERA7\lib/\vt3_runtime\libvt3_runtime.a(vt3_task.obj) (__aeabi_uldivmod)
c:/progra~2/codeso~1/source~1/bin/../lib/gcc/arm-none-linux-gnueabi/4.4.1\libgcc.a(_dvmd_lnx.o)
                              c:/progra~2/codeso~1/source~1/bin/../lib/gcc/arm-none-linux-gnueabi/4.4.1\libgcc.a(_udivsi3.o) (__aeabi_idiv0)
c:/progra~2/codeso~1/source~1/bin/../lib/gcc/arm-none-linux-gnueabi/4.4.1\libgcc.a(_fixsfdi.o)
                              C:\Program Files (x86)\VT3\resources\targets\TERA7\lib/\vt3_runtime\libvt3_runtime.a(ieclib.obj) (__aeabi_f2lz)
c:/progra~2/codeso~1/source~1/bin/../lib/gcc/arm-none-linux-gnueabi/4.4.1\libgcc.a(_fixdfdi.o)
                              C:\Program Files (x86)\VT3\resources\targets\TERA7\lib/\vt3_runtime\libvt3_runtime.a(ieclib.obj) (__aeabi_d2lz)
c:/progra~2/codeso~1/source~1/bin/../lib/gcc/arm-none-linux-gnueabi/4.4.1\libgcc.a(_fixunssfdi.o)
                              C:\Program Files (x86)\VT3\resources\targets\TERA7\lib/\vt3_runtime\libvt3_runtime.a(ieclib.obj) (__aeabi_f2ulz)
c:/progra~2/codeso~1/source~1/bin/../lib/gcc/arm-none-linux-gnueabi/4.4.1\libgcc.a(_fixunsdfdi.o)
                              C:\Program Files (x86)\VT3\resources\targets\TERA7\lib/\vt3_runtime\libvt3_runtime.a(ieclib.obj) (__aeabi_d2ulz)
c:/progra~2/codeso~1/source~1/bin/../lib/gcc/arm-none-linux-gnueabi/4.4.1\libgcc.a(bpabi.o)
                              c:/progra~2/codeso~1/source~1/bin/../lib/gcc/arm-none-linux-gnueabi/4.4.1\libgcc.a(_aeabi_uldivmod.o) (__gnu_uldivmod_helper)
c:/progra~2/codeso~1/source~1/bin/../lib/gcc/arm-none-linux-gnueabi/4.4.1\libgcc.a(_divdi3.o)
                              c:/progra~2/codeso~1/source~1/bin/../lib/gcc/arm-none-linux-gnueabi/4.4.1\libgcc.a(bpabi.o) (__divdi3)
c:/progra~2/codeso~1/source~1/bin/../lib/gcc/arm-none-linux-gnueabi/4.4.1\libgcc.a(_udivdi3.o)
                              c:/progra~2/codeso~1/source~1/bin/../lib/gcc/arm-none-linux-gnueabi/4.4.1\libgcc.a(bpabi.o) (__udivdi3)
c:\progra~2\codeso~1\source~1\bin\../arm-none-linux-gnueabi/libc/usr/lib/libc_nonshared.a(elf-init.oS)
                              c:/progra~2/codeso~1/source~1/bin/../arm-none-linux-gnueabi/libc/usr/lib/crt1.o (__libc_csu_fini)
c:\progra~2\codeso~1\source~1\bin\../arm-none-linux-gnueabi/libc/usr/lib/libc_nonshared.a(aeabi_read_tp.oS)
                              C:\Program Files (x86)\VT3\resources\targets\TERA7\lib/\vt3_runtime\libvt3_runtime.a(ieclib.obj) (__aeabi_read_tp)

Allocating common symbols
Common symbol       size              file

vt3_disp_knob_right
                    0x2               C:\Program Files (x86)\VT3\resources\targets\TERA7\lib/\vt3_runtime\libvt3_runtime.a(vt3_lcd_tl.obj)
BYTEK               0x1               vt3_code/vt3_vars.obj
GET_POWER_FAIL      0x3               vt3_code/vt3_vars.obj
vt3_disp_knob_enter_long
                    0x1               C:\Program Files (x86)\VT3\resources\targets\TERA7\lib/\vt3_runtime\libvt3_runtime.a(vt3_lcd_tl.obj)
vt3_app_CPU_load    0x1               vt3_code/vt3_vars.obj
vt3_can_trigger_IO_CORE_CPU0_RPDO1
                    0x1               vt3_code/vt3_vars.obj
IO_StrobeLight      0x1               vt3_code/vt3_vars.obj
vt3_can_trigger_IO_CORE_CPU0_RPDO5
                    0x1               vt3_code/vt3_vars.obj
IO_kennel6Temp      0x2               vt3_code/vt3_vars.obj
vt3_can_alarm_IO_CORE_CPU0_TPDO3
                    0x1               vt3_code/vt3_vars.obj
PLC_PRG             0x2               vt3_code/vt3_vars.obj
ind_screen_frame_key_F12
                    0x8               vt3_code/vt3_disp.obj
vt3_on_error_counter_array_overflow
                    0x4               vt3_code/vt3_vars.obj
vt3_bytearray_P_error
                    0x1               vt3_code/vt3_vars.obj
IO_AC               0x1               vt3_code/vt3_vars.obj
vt3_bytearray_R_warning
                    0x1               vt3_code/vt3_vars.obj
vt3_on_error_counter_out_of_memory
                    0x4               vt3_code/vt3_vars.obj
vt3_alarm_status    0x2               vt3_code/vt3_alarms.obj
slaveConfigFB_CPU0  0x3               vt3_code/vt3_vars.obj
lcdSetBlank         0x3               vt3_code/vt3_vars.obj
vt3_can_alarm_IO_CORE_CPU1_TPDO4
                    0x1               vt3_code/vt3_vars.obj
vt3_on_error_counter_number_overflow
                    0x4               vt3_code/vt3_vars.obj
WRITE_EL_TO_USB     0x6               vt3_code/vt3_vars.obj
ind_screen_frame_key_F2
                    0x8               vt3_code/vt3_disp.obj
vt3_task_run_time_task100
                    0x4               vt3_code/vt3_vars.obj
ind_screen_frame_key_F6
                    0x8               vt3_code/vt3_disp.obj
BYTEF               0x1               vt3_code/vt3_vars.obj
doBrightness        0x2               vt3_code/vt3_vars.obj
vt3_configure_slave_IO_CORE_CPU0
                    0x1c              vt3_code/vt3_vars.obj
vt3_on_error_counter_conversion_out_of_range
                    0x4               vt3_code/vt3_vars.obj
BYTER               0x3e80            vt3_code/vt3_vars.obj
CO_nodeid           0x1               vt3_code/vt3_vars.obj
IO_kennel5Temp      0x2               vt3_code/vt3_vars.obj
mouse_y             0x4               C:\Program Files (x86)\VT3\resources\targets\TERA7\lib/\vt3_runtime\libvt3_runtime.a(lcd_dfb.obj)
vt3_knob_esc_press  0x1               C:\Program Files (x86)\VT3\resources\targets\TERA7\lib/\vt3_runtime\libvt3_runtime.a(vt3_main.obj)
vt3_force_values    0x4               vt3_code/vt3_IO.obj
usbUpdate           0x2               vt3_code/vt3_vars.obj
ind_screen_frame_keys_backlight
                    0x8               vt3_code/vt3_disp.obj
BYTE_TO_ASCII       0xa               vt3_code/vt3_vars.obj
vt3_can_alarm_CAN_Heartbeat_CPU01
                    0x1               vt3_code/vt3_vars.obj
vt3_disp_knob_esc_long
                    0x1               C:\Program Files (x86)\VT3\resources\targets\TERA7\lib/\vt3_runtime\libvt3_runtime.a(vt3_lcd_tl.obj)
vt3_can_alarm_IO_CORE_CPU0_TPDO4
                    0x1               vt3_code/vt3_vars.obj
ind_screen_frame_key_F9
                    0x8               vt3_code/vt3_disp.obj
ind_screen_frame_key_F13
                    0x8               vt3_code/vt3_disp.obj
IO_VBPlus           0x2               vt3_code/vt3_vars.obj
vt3_elog_communication_status
                    0x18              vt3_code/vt3_alarms.obj
vt3_screen_union    0x608             vt3_code/vt3_disp.obj
vt3_can_period_IO_CORE_CPU0_RPDO1
                    0x2               vt3_code/vt3_vars.obj
vt3_on_error_counter_subrange
                    0x4               vt3_code/vt3_vars.obj
vt3_knob_enter_press
                    0x1               C:\Program Files (x86)\VT3\resources\targets\TERA7\lib/\vt3_runtime\libvt3_runtime.a(vt3_main.obj)
vt3_can_period_IO_CORE_CPU0_RPDO5
                    0x2               vt3_code/vt3_vars.obj
vt3_disp_knob_enter
                    0x1               C:\Program Files (x86)\VT3\resources\targets\TERA7\lib/\vt3_runtime\libvt3_runtime.a(vt3_lcd_tl.obj)
vt3_on_error_counter_string_corrupt
                    0x4               vt3_code/vt3_vars.obj
vt3_force_flags     0x2               vt3_code/vt3_IO.obj
vt3_task_run_time_video_task
                    0x4               vt3_code/vt3_vars.obj
vt3_CPU_load        0x1               vt3_code/vt3_vars.obj
vt3_can_alarm_IO_CORE_CPU1_TPDO1
                    0x1               vt3_code/vt3_vars.obj
VT3_HSIZE           0x4               C:\Program Files (x86)\VT3\resources\targets\TERA7\lib/\vt3_runtime\libvt3_runtime.a(vt3_lcd_3b6.obj)
ind_screen_frame_screen_backlight
                    0x8               vt3_code/vt3_disp.obj
vt3_can_alarm_IO_CORE_CPU1_TPDO5
                    0x1               vt3_code/vt3_vars.obj
vt3_language        0x2               vt3_code/vt3_vars.obj
INIT_BYTEARRAY_R    0x2               vt3_code/vt3_vars.obj
vt3_on_error_counter_zero_division
                    0x4               vt3_code/vt3_vars.obj
vt3_on_error_counter_string_size
                    0x4               vt3_code/vt3_vars.obj
slaveConfigFB_CPU1  0x3               vt3_code/vt3_vars.obj
ind_screen_frame_keys_buzzer
                    0x8               vt3_code/vt3_disp.obj
vt3_on_error_counter_parameter
                    0x4               vt3_code/vt3_vars.obj
ind_screen_frame_key_F1
                    0x8               vt3_code/vt3_disp.obj
vt3_disp_knob_esc_release
                    0x1               C:\Program Files (x86)\VT3\resources\targets\TERA7\lib/\vt3_runtime\libvt3_runtime.a(vt3_lcd_tl.obj)
vt3_disp_knob_left  0x2               C:\Program Files (x86)\VT3\resources\targets\TERA7\lib/\vt3_runtime\libvt3_runtime.a(vt3_lcd_tl.obj)
BYTEE               0x1               vt3_code/vt3_vars.obj
ind_screen_frame_key_F5
                    0x8               vt3_code/vt3_disp.obj
vt3_on_error_counter_operation_out_of_range
                    0x4               vt3_code/vt3_vars.obj
glb_task_attr       0x4               C:\Program Files (x86)\VT3\resources\targets\TERA7\lib/\vt3_runtime\libvt3_runtime.a(vt3_task.obj)
vt3_configure_slave_IO_CORE_CPU1
                    0x1c              vt3_code/vt3_vars.obj
BYTEQ               0x4               vt3_code/vt3_vars.obj
vt3_can_alarm_busoff_CAN_interface
                    0x1               vt3_code/vt3_vars.obj
vt3_devices_alarm_status
                    0xc               vt3_code/vt3_alarms.obj
SHUTDOWN            0x2               vt3_code/vt3_vars.obj
IO_InteriorLight    0x1               vt3_code/vt3_vars.obj
REBOOT              0x2               vt3_code/vt3_vars.obj
BYTEI               0x8               vt3_code/vt3_vars.obj
mouse_x             0x4               C:\Program Files (x86)\VT3\resources\targets\TERA7\lib/\vt3_runtime\libvt3_runtime.a(lcd_dfb.obj)
SET_POWER_FAIL_SHUTDOWN
                    0x3               vt3_code/vt3_vars.obj
BYTEM               0xee              vt3_code/vt3_vars.obj
VT3_VSIZE           0x4               C:\Program Files (x86)\VT3\resources\targets\TERA7\lib/\vt3_runtime\libvt3_runtime.a(vt3_lcd_3b6.obj)
vt3_task_run_time_CAN_bus_task
                    0x4               vt3_code/vt3_vars.obj
vt3_knob_enter_release
                    0x1               C:\Program Files (x86)\VT3\resources\targets\TERA7\lib/\vt3_runtime\libvt3_runtime.a(vt3_main.obj)
vt3_can_alarm_CAN_Heartbeat_CPU02
                    0x1               vt3_code/vt3_vars.obj
vt3_can_alarm_IO_CORE_CPU0_TPDO1
                    0x1               vt3_code/vt3_vars.obj
vt3_disp_knob_enter_press
                    0x1               C:\Program Files (x86)\VT3\resources\targets\TERA7\lib/\vt3_runtime\libvt3_runtime.a(vt3_lcd_tl.obj)
ind_screen_frame_key_F10
                    0x8               vt3_code/vt3_disp.obj
vt3_task_run_time_PLC_PRG
                    0x4               vt3_code/vt3_vars.obj
ind_screen_frame_key_F14
                    0x8               vt3_code/vt3_disp.obj
ind_screen_frame_key_F8
                    0x8               vt3_code/vt3_disp.obj
vt3_on_error_counter_string_overflow
                    0x4               vt3_code/vt3_vars.obj
IO_Fan              0x1               vt3_code/vt3_vars.obj
IO_kennel4Temp      0x2               vt3_code/vt3_vars.obj
vt3_knob_right      0x2               C:\Program Files (x86)\VT3\resources\targets\TERA7\lib/\vt3_runtime\libvt3_runtime.a(vt3_main.obj)
ind_screen_frame_buzzer
                    0x8               vt3_code/vt3_disp.obj
vt3_can_alarm_IO_CORE_CPU0_TPDO5
                    0x1               vt3_code/vt3_vars.obj
outputs             0x2               vt3_code/vt3_vars.obj
IO_kennel2Temp      0x2               vt3_code/vt3_vars.obj
vt3_can_alarm_IO_CORE_CPU1_TPDO2
                    0x1               vt3_code/vt3_vars.obj
vt3_bytearray_R_error
                    0x1               vt3_code/vt3_vars.obj
WRITE_EL_TO_SD      0x6               vt3_code/vt3_vars.obj
ind_screen_frame_key_F4
                    0x8               vt3_code/vt3_disp.obj
vt3_bytearray_P_warning
                    0x1               vt3_code/vt3_vars.obj
vt3_screen          0x2               vt3_code/vt3_vars.obj
vt3_pdf_referenced_symbol
                    0x4               C:\Program Files (x86)\VT3\resources\targets\TERA7\lib/\vt3_runtime\libvt3_runtime.a(vt3_pdf.obj)
IO_ReverseGear      0x1               vt3_code/vt3_vars.obj
CO_cmd              0x1               vt3_code/vt3_vars.obj
BYTEP               0xfde8            vt3_code/vt3_vars.obj
INIT_SD_USB         0x2               vt3_code/vt3_vars.obj
IO2_state           0x1               vt3_code/vt3_vars.obj
slaveConfig         0x3               vt3_code/vt3_vars.obj
vt3_alarm_inhibition_bitmask
                    0x2               vt3_code/vt3_vars.obj
get_prj_version_byte
                    0x17              vt3_code/vt3_vars.obj
vt3_can_alarm_IO_CORE_CPU0_TPDO2
                    0x1               vt3_code/vt3_vars.obj
assignIO            0x2               vt3_code/vt3_vars.obj
ind_screen_frame_key_F11
                    0x8               vt3_code/vt3_disp.obj
vt3_disp_knob_esc_press
                    0x1               C:\Program Files (x86)\VT3\resources\targets\TERA7\lib/\vt3_runtime\libvt3_runtime.a(vt3_lcd_tl.obj)
ind_screen_frame_key_F15
                    0x8               vt3_code/vt3_disp.obj
j1939_MultiPacket_tx_timeout
                    0x2               C:\Program Files (x86)\VT3\resources\targets\TERA7\lib/\vt3_runtime\libvt3_runtime.a(vt3_canlib.obj)
IO_kennel1Temp      0x2               vt3_code/vt3_vars.obj
ind_screen_frame_key_F7
                    0x8               vt3_code/vt3_disp.obj
vt3_knob_left       0x2               C:\Program Files (x86)\VT3\resources\targets\TERA7\lib/\vt3_runtime\libvt3_runtime.a(vt3_main.obj)
IO_kennel3Temp      0x2               vt3_code/vt3_vars.obj
IO_Heat             0x1               vt3_code/vt3_vars.obj
get_prj_version     0x1c              vt3_code/vt3_vars.obj
task100             0x2               vt3_code/vt3_vars.obj
IO_StrobePattern    0x1               vt3_code/vt3_vars.obj
INIT_BYTEARRAY_P    0x2               vt3_code/vt3_vars.obj
IO1_state           0x1               vt3_code/vt3_vars.obj
vt3_can_alarm_IO_CORE_CPU1_TPDO3
                    0x1               vt3_code/vt3_vars.obj
ind_screen_frame_key_F3
                    0x8               vt3_code/vt3_disp.obj
vt3_disp_knob_enter_release
                    0x1               C:\Program Files (x86)\VT3\resources\targets\TERA7\lib/\vt3_runtime\libvt3_runtime.a(vt3_lcd_tl.obj)
BYTES               0x2               vt3_code/vt3_vars.obj
vt3_knob_esc_release
                    0x1               C:\Program Files (x86)\VT3\resources\targets\TERA7\lib/\vt3_runtime\libvt3_runtime.a(vt3_main.obj)

Discarded input sections

 .note.GNU-stack
                0x00000000        0x0 c:/progra~2/codeso~1/source~1/bin/../arm-none-linux-gnueabi/libc/usr/lib/crt1.o
 .note.GNU-stack
                0x00000000        0x0 c:/progra~2/codeso~1/source~1/bin/../arm-none-linux-gnueabi/libc/usr/lib/crti.o
 .note.GNU-stack
                0x00000000        0x0 c:/progra~2/codeso~1/source~1/bin/../lib/gcc/arm-none-linux-gnueabi/4.4.1/crtbegin.o
 .note.GNU-stack
                0x00000000        0x0 C:\Program Files (x86)\VT3\resources\targets\TERA7\lib//vt3_runtime/harfbuzz_fribidi_wrapper_empty.o
 .note.GNU-stack
                0x00000000        0x0 C:\Program Files (x86)\VT3\resources\targets\TERA7\lib/\vt3_runtime\libvt3_runtime.a(vt3_main.obj)
 .note.GNU-stack
                0x00000000        0x0 C:\Program Files (x86)\VT3\resources\targets\TERA7\lib/\vt3_runtime\libvt3_runtime.a(vt3_pdf.obj)
 .note.GNU-stack
                0x00000000        0x0 C:\Program Files (x86)\VT3\resources\targets\TERA7\lib/\vt3_runtime\libvt3_runtime.a(vt3_slaves.obj)
 .note.GNU-stack
                0x00000000        0x0 C:\Program Files (x86)\VT3\resources\targets\TERA7\lib/\vt3_runtime\libvt3_runtime.a(vt3_stats.obj)
 .note.GNU-stack
                0x00000000        0x0 C:\Program Files (x86)\VT3\resources\targets\TERA7\lib/\vt3_runtime\libvt3_runtime.a(vt3_task.obj)
 .note.GNU-stack
                0x00000000        0x0 C:\Program Files (x86)\VT3\resources\targets\TERA7\lib/\vt3_runtime\libvt3_runtime.a(vt3_trend.obj)
 .note.GNU-stack
                0x00000000        0x0 C:\Program Files (x86)\VT3\resources\targets\TERA7\lib/\vt3_runtime\libvt3_runtime.a(akima_interpolator.obj)
 .note.GNU-stack
                0x00000000        0x0 C:\Program Files (x86)\VT3\resources\targets\TERA7\lib/\vt3_runtime\libvt3_runtime.a(ieclib.obj)
 .note.GNU-stack
                0x00000000        0x0 C:\Program Files (x86)\VT3\resources\targets\TERA7\lib/\vt3_runtime\libvt3_runtime.a(lcd_dfb.obj)
 .note.GNU-stack
                0x00000000        0x0 C:\Program Files (x86)\VT3\resources\targets\TERA7\lib/\vt3_runtime\libvt3_runtime.a(vt3_canlib.obj)
 .note.GNU-stack
                0x00000000        0x0 C:\Program Files (x86)\VT3\resources\targets\TERA7\lib/\vt3_runtime\libvt3_runtime.a(vt3_canlib_testable.obj)
 .note.GNU-stack
                0x00000000        0x0 C:\Program Files (x86)\VT3\resources\targets\TERA7\lib/\vt3_runtime\libvt3_runtime.a(vt3_elog.obj)
 .note.GNU-stack
                0x00000000        0x0 C:\Program Files (x86)\VT3\resources\targets\TERA7\lib/\vt3_runtime\libvt3_runtime.a(vt3_lcd_3b6.obj)
 .note.GNU-stack
                0x00000000        0x0 C:\Program Files (x86)\VT3\resources\targets\TERA7\lib/\vt3_runtime\libvt3_runtime.a(vt3_lcd_tl.obj)
 .note.GNU-stack
                0x00000000        0x0 C:\Program Files (x86)\VT3\resources\targets\TERA7\lib/\vt3_runtime\libvt3_runtime.a(vt3_lcd_tl_testable.obj)
 .note.GNU-stack
                0x00000000        0x0 vt3_code/vt3_lang.obj
 .note.GNU-stack
                0x00000000        0x0 vt3_code/vt3_fonts.obj
 .note.GNU-stack
                0x00000000        0x0 vt3_code/vt3_IO.obj
 .note.GNU-stack
                0x00000000        0x0 vt3_code/vt3_alarms.obj
 .note.GNU-stack
                0x00000000        0x0 vt3_code/vt3_POU__iocore_data.obj
 .note.GNU-stack
                0x00000000        0x0 vt3_code/vt3_POU__global_data.obj
 .note.GNU-stack
                0x00000000        0x0 vt3_code/vt3_POU__setup_data.obj
 .note.GNU-stack
                0x00000000        0x0 vt3_code/vt3_POU__splash_data.obj
 .note.GNU-stack
                0x00000000        0x0 vt3_code/vt3_POU__home_data.obj
 .note.GNU-stack
                0x00000000        0x0 vt3_code/vt3_POU__PLC_PRG.obj
 .note.GNU-stack
                0x00000000        0x0 vt3_code/vt3_POU__assignIO.obj
 .note.GNU-stack
                0x00000000        0x0 vt3_code/vt3_POU__doBrightness.obj
 .note.GNU-stack
                0x00000000        0x0 vt3_code/vt3_POU__usbUpdate.obj
 .note.GNU-stack
                0x00000000        0x0 vt3_code/vt3_POU__outputs.obj
 .note.GNU-stack
                0x00000000        0x0 vt3_code/vt3_POU__task100.obj
 .note.GNU-stack
                0x00000000        0x0 vt3_code/vt3_POU__slaveConfig.obj
 .note.GNU-stack
                0x00000000        0x0 vt3_code/vt3_POU__slaveConfigFB_CPU0.obj
 .note.GNU-stack
                0x00000000        0x0 vt3_code/vt3_POU__slaveConfigFB_CPU1.obj
 .note.GNU-stack
                0x00000000        0x0 vt3_code/vt3_POU__interpol.obj
 .note.GNU-stack
                0x00000000        0x0 vt3_code/vt3_POU_common.obj
 .note.GNU-stack
                0x00000000        0x0 vt3_code/vt3_vars.obj
 .note.GNU-stack
                0x00000000        0x0 vt3_code/vt3_var_version.obj
 .note.GNU-stack
                0x00000000        0x0 vt3_code/vt3_init_persistent_p_array.obj
 .note.GNU-stack
                0x00000000        0x0 vt3_code/vt3_init_persistent_r_array.obj
 .note.GNU-stack
                0x00000000        0x0 vt3_code/vt3_init_persistent_f_array.obj
 .note.GNU-stack
                0x00000000        0x0 vt3_code/vt3_CAN__CanInterface.obj
 .note.GNU-stack
                0x00000000        0x0 vt3_code/vt3_CAN_common.obj
 .note.GNU-stack
                0x00000000        0x0 vt3_code/vt3_signature.obj
 .note.GNU-stack
                0x00000000        0x0 vt3_code/vt3_disp_events.obj
 .note.GNU-stack
                0x00000000        0x0 vt3_code/vt3_images.obj
 .note.GNU-stack
                0x00000000        0x0 vt3_code/vt3_disp.obj
 .note.GNU-stack
                0x00000000        0x0 vt3_code/vt3_slaves.obj
 .note.GNU-stack
                0x00000000        0x0 extra/vt3_extra.obj
 .note.GNU-stack
                0x00000000        0x0 C:/Users/hurdj00/Desktop/HARTST~1.1/code/Tera_7/__OBJE~1/vt3_extra.obj
 .note.GNU-stack
                0x00000000        0x0 C:/Users/hurdj00/Desktop/HARTST~1.1/code/Tera_7/__OBJE~1/vt3_POU__ARR_BYTE_version.obj
 .note.GNU-stack
                0x00000000        0x0 C:/Users/hurdj00/Desktop/HARTST~1.1/code/Tera_7/__OBJE~1/vt3_POU__BYTE_TO_ASCII.obj
 .note.GNU-stack
                0x00000000        0x0 C:/Users/hurdj00/Desktop/HARTST~1.1/code/Tera_7/__OBJE~1/vt3_POU__check_touchcalibration.obj
 .note.GNU-stack
                0x00000000        0x0 C:/Users/hurdj00/Desktop/HARTST~1.1/code/Tera_7/__OBJE~1/vt3_POU__GET_POWER_FAIL.obj
 .note.GNU-stack
                0x00000000        0x0 C:/Users/hurdj00/Desktop/HARTST~1.1/code/Tera_7/__OBJE~1/vt3_POU__get_prj_version.obj
 .note.GNU-stack
                0x00000000        0x0 C:/Users/hurdj00/Desktop/HARTST~1.1/code/Tera_7/__OBJE~1/vt3_POU__get_prj_version_byte.obj
 .note.GNU-stack
                0x00000000        0x0 C:/Users/hurdj00/Desktop/HARTST~1.1/code/Tera_7/__OBJE~1/vt3_POU__INIT_BYTEARRAY_P.obj
 .note.GNU-stack
                0x00000000        0x0 C:/Users/hurdj00/Desktop/HARTST~1.1/code/Tera_7/__OBJE~1/vt3_POU__INIT_BYTEARRAY_R.obj
 .note.GNU-stack
                0x00000000        0x0 C:/Users/hurdj00/Desktop/HARTST~1.1/code/Tera_7/__OBJE~1/vt3_POU__INIT_SD_USB.obj
 .note.GNU-stack
                0x00000000        0x0 C:/Users/hurdj00/Desktop/HARTST~1.1/code/Tera_7/__OBJE~1/vt3_POU__lcdSetBlank.obj
 .note.GNU-stack
                0x00000000        0x0 C:/Users/hurdj00/Desktop/HARTST~1.1/code/Tera_7/__OBJE~1/vt3_POU__mountSD.obj
 .note.GNU-stack
                0x00000000        0x0 C:/Users/hurdj00/Desktop/HARTST~1.1/code/Tera_7/__OBJE~1/vt3_POU__mountUSB.obj
 .note.GNU-stack
                0x00000000        0x0 C:/Users/hurdj00/Desktop/HARTST~1.1/code/Tera_7/__OBJE~1/vt3_POU__REBOOT.obj
 .note.GNU-stack
                0x00000000        0x0 C:/Users/hurdj00/Desktop/HARTST~1.1/code/Tera_7/__OBJE~1/vt3_POU__req_touchcalibration.obj
 .note.GNU-stack
                0x00000000        0x0 C:/Users/hurdj00/Desktop/HARTST~1.1/code/Tera_7/__OBJE~1/vt3_POU__SET_POWER_FAIL_SHUTDOWN.obj
 .note.GNU-stack
                0x00000000        0x0 C:/Users/hurdj00/Desktop/HARTST~1.1/code/Tera_7/__OBJE~1/vt3_POU__SHUTDOWN.obj
 .note.GNU-stack
                0x00000000        0x0 C:/Users/hurdj00/Desktop/HARTST~1.1/code/Tera_7/__OBJE~1/vt3_POU__ST_TRANSLATE.obj
 .note.GNU-stack
                0x00000000        0x0 C:/Users/hurdj00/Desktop/HARTST~1.1/code/Tera_7/__OBJE~1/vt3_POU__umountSD.obj
 .note.GNU-stack
                0x00000000        0x0 C:/Users/hurdj00/Desktop/HARTST~1.1/code/Tera_7/__OBJE~1/vt3_POU__umountUSB.obj
 .note.GNU-stack
                0x00000000        0x0 C:/Users/hurdj00/Desktop/HARTST~1.1/code/Tera_7/__OBJE~1/vt3_POU__WRITE_EL.obj
 .note.GNU-stack
                0x00000000        0x0 C:/Users/hurdj00/Desktop/HARTST~1.1/code/Tera_7/__OBJE~1/vt3_POU__WRITE_EL_ENUM.obj
 .note.GNU-stack
                0x00000000        0x0 C:/Users/hurdj00/Desktop/HARTST~1.1/code/Tera_7/__OBJE~1/vt3_POU__WRITE_EL_PRIVATE.obj
 .note.GNU-stack
                0x00000000        0x0 C:/Users/hurdj00/Desktop/HARTST~1.1/code/Tera_7/__OBJE~1/vt3_POU__WRITE_EL_TO_SD.obj
 .note.GNU-stack
                0x00000000        0x0 C:/Users/hurdj00/Desktop/HARTST~1.1/code/Tera_7/__OBJE~1/vt3_POU__WRITE_EL_TO_USB.obj
 .note.GNU-stack
                0x00000000        0x0 c:/progra~2/codeso~1/source~1/bin/../lib/gcc/arm-none-linux-gnueabi/4.4.1\libgcc.a(_udivsi3.o)
 .note.GNU-stack
                0x00000000        0x0 c:/progra~2/codeso~1/source~1/bin/../lib/gcc/arm-none-linux-gnueabi/4.4.1\libgcc.a(_divsi3.o)
 .note.GNU-stack
                0x00000000        0x0 c:/progra~2/codeso~1/source~1/bin/../lib/gcc/arm-none-linux-gnueabi/4.4.1\libgcc.a(_arm_addsubdf3.o)
 .note.GNU-stack
                0x00000000        0x0 c:/progra~2/codeso~1/source~1/bin/../lib/gcc/arm-none-linux-gnueabi/4.4.1\libgcc.a(_arm_muldivdf3.o)
 .note.GNU-stack
                0x00000000        0x0 c:/progra~2/codeso~1/source~1/bin/../lib/gcc/arm-none-linux-gnueabi/4.4.1\libgcc.a(_arm_cmpdf2.o)
 .note.GNU-stack
                0x00000000        0x0 c:/progra~2/codeso~1/source~1/bin/../lib/gcc/arm-none-linux-gnueabi/4.4.1\libgcc.a(_arm_fixdfsi.o)
 .note.GNU-stack
                0x00000000        0x0 c:/progra~2/codeso~1/source~1/bin/../lib/gcc/arm-none-linux-gnueabi/4.4.1\libgcc.a(_arm_fixunsdfsi.o)
 .note.GNU-stack
                0x00000000        0x0 c:/progra~2/codeso~1/source~1/bin/../lib/gcc/arm-none-linux-gnueabi/4.4.1\libgcc.a(_arm_truncdfsf2.o)
 .note.GNU-stack
                0x00000000        0x0 c:/progra~2/codeso~1/source~1/bin/../lib/gcc/arm-none-linux-gnueabi/4.4.1\libgcc.a(_arm_addsubsf3.o)
 .note.GNU-stack
                0x00000000        0x0 c:/progra~2/codeso~1/source~1/bin/../lib/gcc/arm-none-linux-gnueabi/4.4.1\libgcc.a(_arm_muldivsf3.o)
 .note.GNU-stack
                0x00000000        0x0 c:/progra~2/codeso~1/source~1/bin/../lib/gcc/arm-none-linux-gnueabi/4.4.1\libgcc.a(_arm_cmpsf2.o)
 .note.GNU-stack
                0x00000000        0x0 c:/progra~2/codeso~1/source~1/bin/../lib/gcc/arm-none-linux-gnueabi/4.4.1\libgcc.a(_arm_fixsfsi.o)
 .note.GNU-stack
                0x00000000        0x0 c:/progra~2/codeso~1/source~1/bin/../lib/gcc/arm-none-linux-gnueabi/4.4.1\libgcc.a(_arm_fixunssfsi.o)
 .note.GNU-stack
                0x00000000        0x0 c:/progra~2/codeso~1/source~1/bin/../lib/gcc/arm-none-linux-gnueabi/4.4.1\libgcc.a(_aeabi_ldivmod.o)
 .note.GNU-stack
                0x00000000        0x0 c:/progra~2/codeso~1/source~1/bin/../lib/gcc/arm-none-linux-gnueabi/4.4.1\libgcc.a(_aeabi_uldivmod.o)
 .note.GNU-stack
                0x00000000        0x0 c:/progra~2/codeso~1/source~1/bin/../lib/gcc/arm-none-linux-gnueabi/4.4.1\libgcc.a(_dvmd_lnx.o)
 .note.GNU-stack
                0x00000000        0x0 c:/progra~2/codeso~1/source~1/bin/../lib/gcc/arm-none-linux-gnueabi/4.4.1\libgcc.a(_fixsfdi.o)
 .note.GNU-stack
                0x00000000        0x0 c:/progra~2/codeso~1/source~1/bin/../lib/gcc/arm-none-linux-gnueabi/4.4.1\libgcc.a(_fixdfdi.o)
 .note.GNU-stack
                0x00000000        0x0 c:/progra~2/codeso~1/source~1/bin/../lib/gcc/arm-none-linux-gnueabi/4.4.1\libgcc.a(_fixunssfdi.o)
 .note.GNU-stack
                0x00000000        0x0 c:/progra~2/codeso~1/source~1/bin/../lib/gcc/arm-none-linux-gnueabi/4.4.1\libgcc.a(_fixunsdfdi.o)
 .note.GNU-stack
                0x00000000        0x0 c:/progra~2/codeso~1/source~1/bin/../lib/gcc/arm-none-linux-gnueabi/4.4.1\libgcc.a(bpabi.o)
 .note.GNU-stack
                0x00000000        0x0 c:/progra~2/codeso~1/source~1/bin/../lib/gcc/arm-none-linux-gnueabi/4.4.1\libgcc.a(_divdi3.o)
 .note.GNU-stack
                0x00000000        0x0 c:/progra~2/codeso~1/source~1/bin/../lib/gcc/arm-none-linux-gnueabi/4.4.1\libgcc.a(_udivdi3.o)
 .note.GNU-stack
                0x00000000        0x0 c:\progra~2\codeso~1\source~1\bin\../arm-none-linux-gnueabi/libc/usr/lib/libc_nonshared.a(elf-init.oS)
 .note.GNU-stack
                0x00000000        0x0 c:\progra~2\codeso~1\source~1\bin\../arm-none-linux-gnueabi/libc/usr/lib/libc_nonshared.a(aeabi_read_tp.oS)
 .note.GNU-stack
                0x00000000        0x0 c:/progra~2/codeso~1/source~1/bin/../lib/gcc/arm-none-linux-gnueabi/4.4.1/crtend.o
 .note.GNU-stack
                0x00000000        0x0 c:/progra~2/codeso~1/source~1/bin/../arm-none-linux-gnueabi/libc/usr/lib/crtn.o

Memory Configuration

Name             Origin             Length             Attributes
*default*        0x00000000         0xffffffff

Linker script and memory map

LOAD c:/progra~2/codeso~1/source~1/bin/../arm-none-linux-gnueabi/libc/usr/lib/crt1.o
LOAD c:/progra~2/codeso~1/source~1/bin/../arm-none-linux-gnueabi/libc/usr/lib/crti.o
LOAD c:/progra~2/codeso~1/source~1/bin/../lib/gcc/arm-none-linux-gnueabi/4.4.1/crtbegin.o
LOAD c:/progra~2/codeso~1/source~1/bin/../arm-none-linux-gnueabi/libc/usr/lib/librt.so
LOAD C:\Program Files (x86)\VT3\resources\targets\TERA7\lib/\vt3_runtime/libdirectfb.so
LOAD C:\Program Files (x86)\VT3\resources\targets\TERA7\lib/\vt3_runtime/libz.so
LOAD C:\Program Files (x86)\VT3\resources\targets\TERA7\lib/\vt3_runtime/libfusion.so
LOAD C:\Program Files (x86)\VT3\resources\targets\TERA7\lib/\vt3_runtime/libdirect.so
LOAD c:/progra~2/codeso~1/source~1/bin/../arm-none-linux-gnueabi/libc/usr/lib/libpthread.so
START GROUP
LOAD c:\progra~2\codeso~1\source~1\bin\../arm-none-linux-gnueabi/libc/lib/libpthread.so.0
LOAD c:\progra~2\codeso~1\source~1\bin\../arm-none-linux-gnueabi/libc/usr/lib/libpthread_nonshared.a
END GROUP
LOAD C:\Program Files (x86)\VT3\resources\targets\TERA7\lib/\vt3_runtime/libfreetype.so
LOAD C:\Program Files (x86)\VT3\resources\targets\TERA7\lib//vt3_runtime/harfbuzz_fribidi_wrapper_empty.o
LOAD C:\Program Files (x86)\VT3\resources\targets\TERA7\lib/\vt3_runtime\libvt3_runtime.a
LOAD c:/progra~2/codeso~1/source~1/bin/../arm-none-linux-gnueabi/libc/usr/lib/libm.so
LOAD vt3_code/vt3_lang.obj
LOAD vt3_code/vt3_fonts.obj
LOAD vt3_code/vt3_IO.obj
LOAD vt3_code/vt3_alarms.obj
LOAD vt3_code/vt3_POU__iocore_data.obj
LOAD vt3_code/vt3_POU__global_data.obj
LOAD vt3_code/vt3_POU__setup_data.obj
LOAD vt3_code/vt3_POU__splash_data.obj
LOAD vt3_code/vt3_POU__home_data.obj
LOAD vt3_code/vt3_POU__PLC_PRG.obj
LOAD vt3_code/vt3_POU__assignIO.obj
LOAD vt3_code/vt3_POU__doBrightness.obj
LOAD vt3_code/vt3_POU__usbUpdate.obj
LOAD vt3_code/vt3_POU__outputs.obj
LOAD vt3_code/vt3_POU__task100.obj
LOAD vt3_code/vt3_POU__slaveConfig.obj
LOAD vt3_code/vt3_POU__slaveConfigFB_CPU0.obj
LOAD vt3_code/vt3_POU__slaveConfigFB_CPU1.obj
LOAD vt3_code/vt3_POU__interpol.obj
LOAD vt3_code/vt3_POU_common.obj
LOAD vt3_code/vt3_vars.obj
LOAD vt3_code/vt3_var_version.obj
LOAD vt3_code/vt3_init_persistent_p_array.obj
LOAD vt3_code/vt3_init_persistent_r_array.obj
LOAD vt3_code/vt3_init_persistent_f_array.obj
LOAD vt3_code/vt3_CAN__CanInterface.obj
LOAD vt3_code/vt3_CAN_common.obj
LOAD vt3_code/vt3_signature.obj
LOAD vt3_code/vt3_disp_events.obj
LOAD vt3_code/vt3_images.obj
LOAD vt3_code/vt3_disp.obj
LOAD vt3_code/vt3_slaves.obj
LOAD extra/vt3_extra.obj
LOAD C:/Users/hurdj00/Desktop/HARTST~1.1/code/Tera_7/__OBJE~1/vt3_extra.obj
LOAD C:/Users/hurdj00/Desktop/HARTST~1.1/code/Tera_7/__OBJE~1/vt3_POU__ARR_BYTE_version.obj
LOAD C:/Users/hurdj00/Desktop/HARTST~1.1/code/Tera_7/__OBJE~1/vt3_POU__BYTE_TO_ASCII.obj
LOAD C:/Users/hurdj00/Desktop/HARTST~1.1/code/Tera_7/__OBJE~1/vt3_POU__check_touchcalibration.obj
LOAD C:/Users/hurdj00/Desktop/HARTST~1.1/code/Tera_7/__OBJE~1/vt3_POU__GET_POWER_FAIL.obj
LOAD C:/Users/hurdj00/Desktop/HARTST~1.1/code/Tera_7/__OBJE~1/vt3_POU__get_prj_version.obj
LOAD C:/Users/hurdj00/Desktop/HARTST~1.1/code/Tera_7/__OBJE~1/vt3_POU__get_prj_version_byte.obj
LOAD C:/Users/hurdj00/Desktop/HARTST~1.1/code/Tera_7/__OBJE~1/vt3_POU__INIT_BYTEARRAY_P.obj
LOAD C:/Users/hurdj00/Desktop/HARTST~1.1/code/Tera_7/__OBJE~1/vt3_POU__INIT_BYTEARRAY_R.obj
LOAD C:/Users/hurdj00/Desktop/HARTST~1.1/code/Tera_7/__OBJE~1/vt3_POU__INIT_SD_USB.obj
LOAD C:/Users/hurdj00/Desktop/HARTST~1.1/code/Tera_7/__OBJE~1/vt3_POU__lcdSetBlank.obj
LOAD C:/Users/hurdj00/Desktop/HARTST~1.1/code/Tera_7/__OBJE~1/vt3_POU__mountSD.obj
LOAD C:/Users/hurdj00/Desktop/HARTST~1.1/code/Tera_7/__OBJE~1/vt3_POU__mountUSB.obj
LOAD C:/Users/hurdj00/Desktop/HARTST~1.1/code/Tera_7/__OBJE~1/vt3_POU__REBOOT.obj
LOAD C:/Users/hurdj00/Desktop/HARTST~1.1/code/Tera_7/__OBJE~1/vt3_POU__req_touchcalibration.obj
LOAD C:/Users/hurdj00/Desktop/HARTST~1.1/code/Tera_7/__OBJE~1/vt3_POU__SET_POWER_FAIL_SHUTDOWN.obj
LOAD C:/Users/hurdj00/Desktop/HARTST~1.1/code/Tera_7/__OBJE~1/vt3_POU__SHUTDOWN.obj
LOAD C:/Users/hurdj00/Desktop/HARTST~1.1/code/Tera_7/__OBJE~1/vt3_POU__ST_TRANSLATE.obj
LOAD C:/Users/hurdj00/Desktop/HARTST~1.1/code/Tera_7/__OBJE~1/vt3_POU__umountSD.obj
LOAD C:/Users/hurdj00/Desktop/HARTST~1.1/code/Tera_7/__OBJE~1/vt3_POU__umountUSB.obj
LOAD C:/Users/hurdj00/Desktop/HARTST~1.1/code/Tera_7/__OBJE~1/vt3_POU__WRITE_EL.obj
LOAD C:/Users/hurdj00/Desktop/HARTST~1.1/code/Tera_7/__OBJE~1/vt3_POU__WRITE_EL_ENUM.obj
LOAD C:/Users/hurdj00/Desktop/HARTST~1.1/code/Tera_7/__OBJE~1/vt3_POU__WRITE_EL_PRIVATE.obj
LOAD C:/Users/hurdj00/Desktop/HARTST~1.1/code/Tera_7/__OBJE~1/vt3_POU__WRITE_EL_TO_SD.obj
LOAD C:/Users/hurdj00/Desktop/HARTST~1.1/code/Tera_7/__OBJE~1/vt3_POU__WRITE_EL_TO_USB.obj
LOAD c:/progra~2/codeso~1/source~1/bin/../lib/gcc/arm-none-linux-gnueabi/4.4.1\libgcc.a
LOAD c:/progra~2/codeso~1/source~1/bin/../arm-none-linux-gnueabi/libc/lib/libgcc_s.so
LOAD c:/progra~2/codeso~1/source~1/bin/../arm-none-linux-gnueabi/libc/usr/lib/libc.so
START GROUP
LOAD c:\progra~2\codeso~1\source~1\bin\../arm-none-linux-gnueabi/libc/lib/libc.so.6
LOAD c:\progra~2\codeso~1\source~1\bin\../arm-none-linux-gnueabi/libc/usr/lib/libc_nonshared.a
LOAD c:\progra~2\codeso~1\source~1\bin\../arm-none-linux-gnueabi/libc/lib/ld-linux.so.3
END GROUP
LOAD c:/progra~2/codeso~1/source~1/bin/../lib/gcc/arm-none-linux-gnueabi/4.4.1\libgcc.a
LOAD c:/progra~2/codeso~1/source~1/bin/../arm-none-linux-gnueabi/libc/lib/libgcc_s.so
LOAD c:/progra~2/codeso~1/source~1/bin/../lib/gcc/arm-none-linux-gnueabi/4.4.1/crtend.o
LOAD c:/progra~2/codeso~1/source~1/bin/../arm-none-linux-gnueabi/libc/usr/lib/crtn.o
                0x00008000                PROVIDE (__executable_start, 0x8000)
                0x00008154                . = (0x8000 + SIZEOF_HEADERS)

.interp         0x00008154       0x13
 *(.interp)
 .interp        0x00008154       0x13 c:/progra~2/codeso~1/source~1/bin/../arm-none-linux-gnueabi/libc/usr/lib/crti.o

.note.ABI-tag   0x00008168       0x20
 .note.ABI-tag  0x00008168       0x20 c:/progra~2/codeso~1/source~1/bin/../arm-none-linux-gnueabi/libc/usr/lib/crt1.o

.note.gnu.build-id
 *(.note.gnu.build-id)

.hash           0x00008188      0x454
 *(.hash)
 .hash          0x00008188      0x454 c:/progra~2/codeso~1/source~1/bin/../arm-none-linux-gnueabi/libc/usr/lib/crti.o

.gnu.hash
 *(.gnu.hash)

.dynsym         0x000085dc      0x900
 *(.dynsym)
 .dynsym        0x000085dc      0x900 c:/progra~2/codeso~1/source~1/bin/../arm-none-linux-gnueabi/libc/usr/lib/crti.o

.dynstr         0x00008edc      0x55b
 *(.dynstr)
 .dynstr        0x00008edc      0x55b c:/progra~2/codeso~1/source~1/bin/../arm-none-linux-gnueabi/libc/usr/lib/crti.o

.gnu.version    0x00009438      0x120
 *(.gnu.version)
 .gnu.version   0x00009438      0x120 c:/progra~2/codeso~1/source~1/bin/../arm-none-linux-gnueabi/libc/usr/lib/crti.o

.gnu.version_d  0x00009558        0x0
 *(.gnu.version_d)
 .gnu.version_d
                0x00000000        0x0 c:/progra~2/codeso~1/source~1/bin/../arm-none-linux-gnueabi/libc/usr/lib/crti.o

.gnu.version_r  0x00009558       0xa0
 *(.gnu.version_r)
 .gnu.version_r
                0x00009558       0xa0 c:/progra~2/codeso~1/source~1/bin/../arm-none-linux-gnueabi/libc/usr/lib/crti.o

.rel.dyn        0x000095f8       0x18
 *(.rel.init)
 *(.rel.text .rel.text.* .rel.gnu.linkonce.t.*)
 *(.rel.fini)
 *(.rel.rodata .rel.rodata.* .rel.gnu.linkonce.r.*)
 *(.rel.data.rel.ro* .rel.gnu.linkonce.d.rel.ro.*)
 *(.rel.data .rel.data.* .rel.gnu.linkonce.d.*)
 *(.rel.tdata .rel.tdata.* .rel.gnu.linkonce.td.*)
 *(.rel.tbss .rel.tbss.* .rel.gnu.linkonce.tb.*)
 *(.rel.ctors)
 *(.rel.dtors)
 *(.rel.got)
 .rel.got       0x000095f8        0x8 c:/progra~2/codeso~1/source~1/bin/../arm-none-linux-gnueabi/libc/usr/lib/crti.o
 *(.rel.bss .rel.bss.* .rel.gnu.linkonce.b.*)
 .rel.bss       0x00009600       0x10 c:/progra~2/codeso~1/source~1/bin/../arm-none-linux-gnueabi/libc/usr/lib/crti.o
 *(.rel.ifunc)

.rela.dyn
 *(.rela.init)
 *(.rela.text .rela.text.* .rela.gnu.linkonce.t.*)
 *(.rela.fini)
 *(.rela.rodata .rela.rodata.* .rela.gnu.linkonce.r.*)
 *(.rela.data .rela.data.* .rela.gnu.linkonce.d.*)
 *(.rela.tdata .rela.tdata.* .rela.gnu.linkonce.td.*)
 *(.rela.tbss .rela.tbss.* .rela.gnu.linkonce.tb.*)
 *(.rela.ctors)
 *(.rela.dtors)
 *(.rela.got)
 *(.rela.bss .rela.bss.* .rela.gnu.linkonce.b.*)
 *(.rela.ifunc)

.rel.plt        0x00009610      0x3d0
 *(.rel.plt)
 .rel.plt       0x00009610      0x3d0 c:/progra~2/codeso~1/source~1/bin/../arm-none-linux-gnueabi/libc/usr/lib/crti.o
                0x000099e0                PROVIDE (__rel_iplt_start, .)
 *(.rel.iplt)
                0x000099e0                PROVIDE (__rel_iplt_end, .)

.rela.plt       0x000099e0        0x0
 *(.rela.plt)
                0x000099e0                PROVIDE (__rela_iplt_start, .)
 *(.rela.iplt)
                0x000099e0                PROVIDE (__rela_iplt_end, .)

.init           0x000099e0        0xc
 *(.init)
 .init          0x000099e0        0x8 c:/progra~2/codeso~1/source~1/bin/../arm-none-linux-gnueabi/libc/usr/lib/crti.o
                0x000099e0                _init
 .init          0x000099e8        0x4 c:/progra~2/codeso~1/source~1/bin/../arm-none-linux-gnueabi/libc/usr/lib/crtn.o

.plt            0x000099ec      0x5cc
 *(.plt)
 .plt           0x000099ec      0x5cc c:/progra~2/codeso~1/source~1/bin/../arm-none-linux-gnueabi/libc/usr/lib/crti.o
                0x00009a00                open@@GLIBC_2.4
                0x00009a0c                sync@@GLIBC_2.4
                0x00009a18                tanf@@GLIBC_2.4
                0x00009a24                mkdir@@GLIBC_2.4
                0x00009a30                localtime_r@@GLIBC_2.4
                0x00009a3c                abort@@GLIBC_2.4
                0x00009a48                localtime@@GLIBC_2.4
                0x00009a54                pthread_attr_getschedparam@@GLIBC_2.4
                0x00009a60                memcmp@@GLIBC_2.4
                0x00009a6c                DirectFBSetOption
                0x00009a78                clock_gettime@@GLIBC_2.4
                0x00009a84                __xstat@@GLIBC_2.4
                0x00009a90                __libc_start_main@@GLIBC_2.4
                0x00009a9c                lround@@GLIBC_2.4
                0x00009aa8                signal@@GLIBC_2.4
                0x00009ab4                __isinf@@GLIBC_2.4
                0x00009ac0                asin@@GLIBC_2.4
                0x00009acc                __lxstat@@GLIBC_2.4
                0x00009ad8                pthread_attr_setschedpolicy@@GLIBC_2.4
                0x00009af0                sqrtf@@GLIBC_2.4
                0x00009afc                pow@@GLIBC_2.4
                0x00009b08                strncpy@@GLIBC_2.4
                0x00009b14                fclose@@GLIBC_2.4
                0x00009b20                fgets@@GLIBC_2.4
                0x00009b2c                strtod@@GLIBC_2.4
                0x00009b38                system@@GLIBC_2.4
                0x00009b44                strchr@@GLIBC_2.4
                0x00009b50                strcasecmp@@GLIBC_2.4
                0x00009b5c                pclose@@GLIBC_2.4
                0x00009b68                sincos@@GLIBC_2.4
                0x00009b74                fopen@@GLIBC_2.4
                0x00009b80                shmat@@GLIBC_2.4
                0x00009b8c                memset@@GLIBC_2.4
                0x00009b98                strrchr@@GLIBC_2.4
                0x00009ba4                pthread_attr_setschedparam@@GLIBC_2.4
                0x00009bb0                perror@@GLIBC_2.4
                0x00009bbc                strtoll@@GLIBC_2.4
                0x00009bc8                floor@@GLIBC_2.4
                0x00009bd4                chmod@@GLIBC_2.4
                0x00009be0                __assert_fail@@GLIBC_2.4
                0x00009bec                exp@@GLIBC_2.4
                0x00009bf8                asinf@@GLIBC_2.4
                0x00009c04                usleep@@GLIBC_2.4
                0x00009c10                sqrt@@GLIBC_2.4
                0x00009c1c                strtoull@@GLIBC_2.4
                0x00009c28                free@@GLIBC_2.4
                0x00009c34                read@@GLIBC_2.4
                0x00009c40                write@@GLIBC_2.4
                0x00009c4c                DirectFBCreate
                0x00009c58                atan@@GLIBC_2.4
                0x00009c64                access@@GLIBC_2.4
                0x00009c70                fseek@@GLIBC_2.4
                0x00009c7c                bsearch@@GLIBC_2.4
                0x00009c88                pthread_mutex_unlock@@GLIBC_2.4
                0x00009c94                atanf@@GLIBC_2.4
                0x00009ca0                fflush@@GLIBC_2.4
                0x00009cac                ioctl@@GLIBC_2.4
                0x00009cb8                DirectFBError
                0x00009cc4                pthread_mutex_lock@@GLIBC_2.4
                0x00009cd0                strlen@@GLIBC_2.4
                0x00009cdc                unlink@@GLIBC_2.4
                0x00009ce8                strtoul@@GLIBC_2.4
                0x00009cf4                pthread_create@@GLIBC_2.4
                0x00009d00                execv@@GLIBC_2.4
                0x00009d0c                memcpy@@GLIBC_2.4
                0x00009d18                acos@@GLIBC_2.4
                0x00009d24                feof@@GLIBC_2.4
                0x00009d30                ftell@@GLIBC_2.4
                0x00009d3c                strtol@@GLIBC_2.4
                0x00009d48                strcpy@@GLIBC_2.4
                0x00009d54                waitpid@@GLIBC_2.4
                0x00009d60                printf@@GLIBC_2.4
                0x00009d6c                raise@@GLIBC_2.4
                0x00009d78                fdopen@@GLIBC_2.4
                0x00009d84                strstr@@GLIBC_2.4
                0x00009d90                close@@GLIBC_2.4
                0x00009d9c                fwrite@@GLIBC_2.4
                0x00009da8                time@@GLIBC_2.4
                0x00009db4                acosf@@GLIBC_2.4
                0x00009dc0                log10@@GLIBC_2.4
                0x00009dcc                __ctype_b_loc@@GLIBC_2.4
                0x00009dd8                fprintf@@GLIBC_2.4
                0x00009de4                log10f@@GLIBC_2.4
                0x00009df0                malloc@@GLIBC_2.4
                0x00009dfc                error@@GLIBC_2.4
                0x00009e08                chdir@@GLIBC_2.4
                0x00009e14                pthread_attr_init@@GLIBC_2.4
                0x00009e20                fputc@@GLIBC_2.4
                0x00009e2c                __isinff@@GLIBC_2.4
                0x00009e38                strtok@@GLIBC_2.4
                0x00009e44                ftruncate@@GLIBC_2.4
                0x00009e50                sleep@@GLIBC_2.4
                0x00009e5c                strcat@@GLIBC_2.4
                0x00009e68                popen@@GLIBC_2.4
                0x00009e74                dup2@@GLIBC_2.4
                0x00009e80                puts@@GLIBC_2.4
                0x00009e8c                log@@GLIBC_2.4
                0x00009e98                getpid@@GLIBC_2.4
                0x00009ea4                fcntl@@GLIBC_2.4
                0x00009eb0                fork@@GLIBC_2.4
                0x00009ebc                lseek@@GLIBC_2.4
                0x00009ec8                tan@@GLIBC_2.4
                0x00009ed4                snprintf@@GLIBC_2.4
                0x00009ee0                fread@@GLIBC_2.4
                0x00009eec                strncmp@@GLIBC_2.4
                0x00009ef8                kill@@GLIBC_2.4
                0x00009f04                nanosleep@@GLIBC_2.4
                0x00009f10                realloc@@GLIBC_2.4
                0x00009f1c                pipe@@GLIBC_2.4
                0x00009f28                __strdup@@GLIBC_2.4
                0x00009f34                DirectFBInit
                0x00009f40                strcmp@@GLIBC_2.4
                0x00009f4c                exit@@GLIBC_2.4
                0x00009f58                logf@@GLIBC_2.4
                0x00009f64                __errno_location@@GLIBC_2.4
                0x00009f70                DirectFBErrorFatal
                0x00009f7c                ceil@@GLIBC_2.4
                0x00009f88                sprintf@@GLIBC_2.4
                0x00009f94                pthread_join@@GLIBC_2.4
                0x00009fa0                getpagesize@@GLIBC_2.4
                0x00009fac                shmget@@GLIBC_2.4
 *(.iplt)

.text           0x00009fc0    0x53ba0
 *(.text .stub .text.* .gnu.linkonce.t.*)
 .text          0x00009fc0       0x3c c:/progra~2/codeso~1/source~1/bin/../arm-none-linux-gnueabi/libc/usr/lib/crt1.o
                0x00009fc0                _start
 .text          0x00009ffc       0x24 c:/progra~2/codeso~1/source~1/bin/../arm-none-linux-gnueabi/libc/usr/lib/crti.o
 .text          0x0000a020       0x4c c:/progra~2/codeso~1/source~1/bin/../lib/gcc/arm-none-linux-gnueabi/4.4.1/crtbegin.o
 .text          0x0000a06c       0x18 C:\Program Files (x86)\VT3\resources\targets\TERA7\lib//vt3_runtime/harfbuzz_fribidi_wrapper_empty.o
                0x0000a06c                LIBHBFB_get_shaped_string_parameters
                0x0000a074                LIBHBFB_call_fribidi_algorithm
                0x0000a07c                LIBHBFB_shaping_is_needed
 .text          0x0000a084     0x1fb0 C:\Program Files (x86)\VT3\resources\targets\TERA7\lib/\vt3_runtime\libvt3_runtime.a(vt3_main.obj)
                0x0000a1d4                load_bytearray_F
                0x0000a1d8                save_bytearray_F
                0x0000a1e0                InitBuzzerIntensity
                0x0000a204                ReduceBuzzerIntensity
                0x0000a23c                InitExternalBuzzer
                0x0000a258                InitExternalBuzzerExt
                0x0000a270                SetPowerFailShutDown
                0x0000a280                GetPowerFail
                0x0000a290                SetBacklight
                0x0000a2b0                GetLightSensorValue
                0x0000a3dc                InitLightSensor
                0x0000a60c                save_bytearray_R
                0x0000a7e8                save_bytearray_P
                0x0000a8c0                load_bytearray_P
                0x0000ab50                load_bytearray_R
                0x0000ae8c                SetKeysBacklight
                0x0000af10                SetFan
                0x0000b19c                ShutDown
                0x0000b1b4                main
                0x0000b7fc                SetExternalBuzzer
                0x0000b904                SetBuzzerWithIntensity
                0x0000beb0                SetBuzzer
 .text          0x0000c034     0x24a8 C:\Program Files (x86)\VT3\resources\targets\TERA7\lib/\vt3_runtime\libvt3_runtime.a(vt3_pdf.obj)
                0x0000c0ac                vt3_load_pdf_from_usb_to_sd_get_status
                0x0000c174                vt3_load_pdf_from_usb_to_sd_start
                0x0000c5a0                vt3_sdcard_mount_async
                0x0000c820                vt3_draw_indicator_PdfViewer
 .text          0x0000e4dc      0xe5c C:\Program Files (x86)\VT3\resources\targets\TERA7\lib/\vt3_runtime\libvt3_runtime.a(vt3_slaves.obj)
                0x0000e4dc                vt3_CANopen_NMT_start
                0x0000e520                vt3_CANopen_on_received_thread_unsafe
                0x0000e864                vt3_CANopen_on_received
                0x0000e8a8                vt3_CANopen_SDO_expedited_read
                0x0000e9d0                vt3_CANopen_SDO_expedited_write
                0x0000eb94                vt3_CANopen_SDO_get_read_result
                0x0000ee40                vt3_CANopen_SDO_get_write_result
                0x0000f09c                VT3_CONFIGURE_SLAVE__call
 .text          0x0000f338      0x434 C:\Program Files (x86)\VT3\resources\targets\TERA7\lib/\vt3_runtime\libvt3_runtime.a(vt3_stats.obj)
                0x0000f338                GetVt3CpuStatistics
 .text          0x0000f76c      0x924 C:\Program Files (x86)\VT3\resources\targets\TERA7\lib/\vt3_runtime\libvt3_runtime.a(vt3_task.obj)
                0x0000f76c                timespec_cmp
                0x0000f7c4                timespec_sub
                0x0000f850                timespec_add
                0x0000f8a4                timespec_to_ms
                0x0000f8dc                timespec_zero
                0x0000f8ec                timespec_is_zero
                0x0000f91c                init_periodic_task
                0x0000f984                init_task
                0x0000f9d4                get_periodic_task_statistic
                0x0000faa8                reset_periodic_task_measure
                0x0000fb1c                start_task
                0x0000fc08                vt3_get_system_ticks
                0x0000fc48                vt3_get_ms_since_start
                0x0000fc90                prepare_init_task
                0x0000fccc                periodic_task
 .text          0x00010090     0x278c C:\Program Files (x86)\VT3\resources\targets\TERA7\lib/\vt3_runtime\libvt3_runtime.a(vt3_trend.obj)
                0x00010090                vt3_decimateSamples
                0x00010f70                vt3_trend_SamplingSetup
                0x000119b4                vt3_draw_indicator_Trend
                0x0001268c                vt3_trend_createCircularBufferFromSamples
 .text          0x0001281c      0x7b0 C:\Program Files (x86)\VT3\resources\targets\TERA7\lib/\vt3_runtime\libvt3_runtime.a(akima_interpolator.obj)
                0x0001281c                akima_interpolator_free
                0x0001285c                akima_interpolator_eval
                0x000129cc                akima_interpolator_init
 .text          0x00012fcc    0x1ec3c C:\Program Files (x86)\VT3\resources\targets\TERA7\lib/\vt3_runtime\libvt3_runtime.a(ieclib.obj)
                0x00012fd4                on_error
                0x00012ff8                BOOL_TO_SINT
                0x00013000                BOOL_TO_USINT
                0x00013004                BYTE_TO_USINT
                0x00013008                USINT_TO_UINT
                0x0001300c                LREAL_TO_REAL
                0x00013018                ULINT_TO_LWORD
                0x0001301c                TRUNC_REAL
                0x00013028                TRUNC_LREAL
                0x00013034                MAX_DATE_AND_TIME
                0x00013090                MIN_DATE_AND_TIME
                0x000130ec                LIMIT_SINT
                0x0001310c                LIMIT_INT
                0x0001312c                LIMIT_DINT
                0x00013144                LIMIT_LINT
                0x0001318c                LIMIT_USINT
                0x000131a4                LIMIT_UINT
                0x000131bc                LIMIT_UDINT
                0x000131d4                LIMIT_ULINT
                0x0001321c                LIMIT_BOOL
                0x00013234                LIMIT_BYTE
                0x0001324c                LIMIT_WORD
                0x00013264                LIMIT_DWORD
                0x0001327c                LIMIT_LWORD
                0x000132c4                LIMIT_REAL
                0x00013300                LIMIT_LREAL
                0x00013358                LIMIT_TIME
                0x00013370                LIMIT_DATE
                0x00013388                LIMIT_TIME_OF_DAY
                0x000133a0                LIMIT_DATE_AND_TIME
                0x00013424                GT_DATE_AND_TIME_2
                0x00013478                GE_DATE_AND_TIME_2
                0x000134cc                EQ_DATE_AND_TIME_2
                0x0001351c                LE_DATE_AND_TIME_2
                0x00013570                LT_DATE_AND_TIME_2
                0x000135c4                NE_DATE_AND_TIME
                0x0001360c                vt3_fix_string_sizes
                0x0001364c                ADD_DT_TIME
                0x00013738                MULTIME
                0x00013740                CONCAT_DATE_TOD
                0x00013748                DT_TO_TOD
                0x00013760                DT_TO_DATE
                0x00013774                DATE_TO_YEAR
                0x000138a0                DATE_TO_MONTH
                0x000139b4                DATE_TO_DAY
                0x00013ad4                TOD_TO_HOUR
                0x00013ae8                TOD_TO_MINUTE
                0x00013b20                TOD_TO_SECOND
                0x00013b58                TOD_TO_MS
                0x00013b7c                SR__call
                0x00013bbc                RS__call
                0x00013c00                R_TRIG__call
                0x00013c44                F_TRIG__call
                0x00013c88                CTU__call
                0x00013d24                CTU_DINT__call
                0x00013d94                CTU_UDINT__call
                0x00013e04                CTU_LINT__call
                0x00013e90                CTU_ULINT__call
                0x00013f1c                CTD__call
                0x00013f98                CTD_DINT__call
                0x00014000                CTD_UDINT__call
                0x00014060                CTD_LINT__call
                0x000140d8                CTD_ULINT__call
                0x00014158                CTUD__call
                0x00014244                CTUD_DINT__call
                0x00014328                CTUD_UDINT__call
                0x00014408                CTUD_LINT__call
                0x0001454c                CTUD_ULINT__call
                0x00014668                regression_error_handler
                0x00014678                TOF__init
                0x000146a8                TON__init
                0x000146d8                TP__init
                0x00014708                CTUD_ULINT__init
                0x00014744                CTUD_LINT__init
                0x00014780                CTUD_UDINT__init
                0x000147b0                CTUD_DINT__init
                0x000147e0                CTUD__init
                0x0001480c                CTD_ULINT__init
                0x00014848                CTD_LINT__init
                0x00014884                CTD_UDINT__init
                0x000148b0                CTD_DINT__init
                0x000148dc                CTD__init
                0x00014904                CTU_ULINT__init
                0x00014940                CTU_LINT__init
                0x0001497c                CTU_UDINT__init
                0x000149a8                CTU_DINT__init
                0x000149d4                CTU__init
                0x000149fc                F_TRIG__init
                0x00014a20                R_TRIG__init
                0x00014a44                RS__init
                0x00014a68                SR__init
                0x00014a8c                vt3_atomic_read_lreal
                0x00014ae8                vt3_atomic_read_date_and_time
                0x00014b50                vt3_atomic_read_ulint
                0x00014bb0                vt3_atomic_read_lint
                0x00014c10                vt3_atomic_read_lword
                0x00014c70                TP__call
                0x00014d54                GET_SYSTEM_MILLISECONDS
                0x00014d94                LT_DATE_AND_TIME_N
                0x00014f94                LT_TIME_OF_DAY_N
                0x000150b0                LT_DATE_N
                0x000151cc                LT_TIME_N
                0x000152e8                LT_LREAL_N
                0x000154c8                LT_REAL_N
                0x00015688                LT_LWORD_N
                0x000157f8                LT_DWORD_N
                0x00015914                LT_WORD_N
                0x00015a44                LT_BYTE_N
                0x00015b74                LT_ULINT_N
                0x00015ce4                LT_UDINT_N
                0x00015e00                LT_UINT_N
                0x00015f30                LT_USINT_N
                0x00016060                LT_LINT_N
                0x000161d0                LT_DINT_N
                0x000162ec                LT_INT_N
                0x00016448                LT_SINT_N
                0x000165a4                LT_BOOL_N
                0x000166d4                LE_DATE_AND_TIME_N
                0x000168d4                LE_TIME_OF_DAY_N
                0x000169f0                LE_DATE_N
                0x00016b0c                LE_TIME_N
                0x00016c28                LE_LREAL_N
                0x00016e08                LE_REAL_N
                0x00016fc8                LE_LWORD_N
                0x00017138                LE_DWORD_N
                0x00017254                LE_WORD_N
                0x00017384                LE_BYTE_N
                0x000174b4                LE_ULINT_N
                0x00017624                LE_UDINT_N
                0x00017740                LE_UINT_N
                0x00017870                LE_USINT_N
                0x000179a0                LE_LINT_N
                0x00017b10                LE_DINT_N
                0x00017c2c                LE_INT_N
                0x00017d88                LE_SINT_N
                0x00017ee4                LE_BOOL_N
                0x00018014                EQ_DATE_AND_TIME_N
                0x00018194                EQ_TIME_OF_DAY_N
                0x000182a0                EQ_DATE_N
                0x000183ac                EQ_TIME_N
                0x000184b8                EQ_LREAL_N
                0x00018698                EQ_REAL_N
                0x00018858                EQ_LWORD_N
                0x000189a8                EQ_DWORD_N
                0x00018ab4                EQ_WORD_N
                0x00018bd4                EQ_BYTE_N
                0x00018cf4                EQ_ULINT_N
                0x00018e44                EQ_UDINT_N
                0x00018f50                EQ_UINT_N
                0x00019070                EQ_USINT_N
                0x00019190                EQ_LINT_N
                0x000192e0                EQ_DINT_N
                0x000193ec                EQ_INT_N
                0x00019520                EQ_SINT_N
                0x00019654                EQ_BOOL_N
                0x00019774                GE_DATE_AND_TIME_N
                0x00019974                GE_TIME_OF_DAY_N
                0x00019a90                GE_DATE_N
                0x00019bac                GE_TIME_N
                0x00019cc8                GE_LREAL_N
                0x00019ea8                GE_REAL_N
                0x0001a068                GE_LWORD_N
                0x0001a1d8                GE_DWORD_N
                0x0001a2f4                GE_WORD_N
                0x0001a424                GE_BYTE_N
                0x0001a554                GE_ULINT_N
                0x0001a6c4                GE_UDINT_N
                0x0001a7e0                GE_UINT_N
                0x0001a910                GE_USINT_N
                0x0001aa40                GE_LINT_N
                0x0001abb0                GE_DINT_N
                0x0001accc                GE_INT_N
                0x0001ae28                GE_SINT_N
                0x0001af84                GE_BOOL_N
                0x0001b0b4                GT_DATE_AND_TIME_N
                0x0001b2b4                GT_TIME_OF_DAY_N
                0x0001b3d0                GT_DATE_N
                0x0001b4ec                GT_TIME_N
                0x0001b608                GT_LREAL_N
                0x0001b7e8                GT_REAL_N
                0x0001b9a8                GT_LWORD_N
                0x0001bb18                GT_DWORD_N
                0x0001bc34                GT_WORD_N
                0x0001bd64                GT_BYTE_N
                0x0001be94                GT_ULINT_N
                0x0001c004                GT_UDINT_N
                0x0001c120                GT_UINT_N
                0x0001c250                GT_USINT_N
                0x0001c380                GT_LINT_N
                0x0001c4f0                GT_DINT_N
                0x0001c60c                GT_INT_N
                0x0001c768                GT_SINT_N
                0x0001c8c4                GT_BOOL_N
                0x0001c9f4                vt3_free_temporary_strings
                0x0001ca30                ATAN_LREAL
                0x0001ca34                ATAN_REAL
                0x0001cb74                runtime_error
                0x0001cba8                vt3_alloc_wstring
                0x0001cc20                DELETE_WSTRING
                0x0001cce4                INSERT_WSTRING
                0x0001cdd8                MID_WSTRING
                0x0001ce8c                vt3_alloc_string
                0x0001cefc                WSTRING_TO_STRING
                0x0001d49c                INSERT_STRING
                0x0001d584                MID_STRING
                0x0001d638                SET_CURRENT_DATE_AND_TIME
                0x0001d72c                SUB_DT_TIME
                0x0001d81c                TOF__call
                0x0001d8f0                TON__call
                0x0001d9b0                REAL_TO_STRING
                0x0001da68                ULINT_TO_STRING
                0x0001db1c                BOOL_TO_STRING
                0x0001dbd8                LREAL_TO_STRING
                0x0001dc8c                LWORD_TO_STRING
                0x0001dd40                UINT_TO_STRING
                0x0001ddfc                INT_TO_STRING
                0x0001deb8                LINT_TO_STRING
                0x0001df6c                DWORD_TO_STRING
                0x0001e028                UDINT_TO_STRING
                0x0001e0e4                USINT_TO_STRING
                0x0001e1a0                DINT_TO_STRING
                0x0001e25c                BYTE_TO_STRING
                0x0001e318                SINT_TO_STRING
                0x0001e3d4                WORD_TO_STRING
                0x0001e490                DWORD_TO_INT
                0x0001e4c8                WORD_TO_INT
                0x0001e500                ULINT_TO_INT
                0x0001e54c                UDINT_TO_INT
                0x0001e584                UINT_TO_INT
                0x0001e5bc                LINT_TO_INT
                0x0001e618                DINT_TO_INT
                0x0001e654                LREAL_TO_SINT
                0x0001e6e0                REAL_TO_SINT
                0x0001e750                BYTE_TO_SINT
                0x0001e788                UDINT_TO_SINT
                0x0001e7c0                UINT_TO_SINT
                0x0001e7f8                ULINT_TO_SINT
                0x0001e838                DWORD_TO_SINT
                0x0001e870                WORD_TO_SINT
                0x0001e8a8                LWORD_TO_SINT
                0x0001e8e8                USINT_TO_SINT
                0x0001e920                LINT_TO_SINT
                0x0001e970                DINT_TO_SINT
                0x0001e9ac                INT_TO_SINT
                0x0001e9ec                LREAL_TO_BOOL
                0x0001ea78                REAL_TO_BOOL
                0x0001eae8                LWORD_TO_BOOL
                0x0001eb30                DWORD_TO_BOOL
                0x0001eb6c                WORD_TO_BOOL
                0x0001eba8                BYTE_TO_BOOL
                0x0001ebe4                ULINT_TO_BOOL
                0x0001ec2c                UDINT_TO_BOOL
                0x0001ec68                UINT_TO_BOOL
                0x0001eca4                USINT_TO_BOOL
                0x0001ece0                LINT_TO_BOOL
                0x0001ed28                DINT_TO_BOOL
                0x0001ed64                INT_TO_BOOL
                0x0001eda4                SINT_TO_BOOL
                0x0001ede4                ADD_TOD_TIME
                0x0001ee38                ADD_TIME
                0x0001ee98                FIND_WSTRING
                0x0001ef74                FIND_STRING
                0x0001f04c                NE_WSTRING
                0x0001f138                NE_STRING
                0x0001f220                LT_WSTRING_2
                0x0001f320                LT_WSTRING_N
                0x0001f4f4                MIN_WSTRING
                0x0001f588                LT_STRING_2
                0x0001f684                LT_STRING_N
                0x0001f858                MIN_STRING
                0x0001f8ec                YMD_TO_DATE
                0x0001fa34                SUB_DT_DT
                0x0001fa98                SUB_TOD_TOD
                0x0001faf0                SUB_TOD_TIME
                0x0001fb74                SUB_DATE_DATE
                0x0001fbb4                SUB_TIME
                0x0001fc14                HMS_TO_TOD
                0x0001fcec                INT_TO_WORD
                0x0001fd20                SINT_TO_WORD
                0x0001fd54                LREAL_TO_BYTE
                0x0001fddc                REAL_TO_BYTE
                0x0001fe4c                LWORD_TO_BYTE
                0x0001fe8c                LE_WSTRING_2
                0x0001ff7c                LE_STRING_2
                0x00020068                EQ_WSTRING_2
                0x00020154                GT_STRING_2
                0x00020244                MUX_LWORD
                0x00020350                MUX_DWORD
                0x00020430                MUX_WORD
                0x00020514                MUX_BYTE
                0x000205f4                MUX_WSTRING
                0x000206d4                MUX_STRING
                0x000207b4                GE_WSTRING_2
                0x000208b8                GE_WSTRING_N
                0x00020a8c                GE_STRING_2
                0x00020b8c                GE_STRING_N
                0x00020d60                EQ_STRING_2
                0x00020e48                GT_WSTRING_2
                0x00020f3c                MUX_DATE_AND_TIME
                0x0002105c                MUX_TIME_OF_DAY
                0x0002113c                MUX_DATE
                0x0002121c                MUX_TIME
                0x000212fc                MUX_LREAL
                0x00021400                MUX_REAL
                0x00021508                MUX_ULINT
                0x00021614                MUX_UDINT
                0x000216f4                MUX_UINT
                0x000217d8                MUX_USINT
                0x000218b8                MUX_LINT
                0x000219c4                MUX_DINT
                0x00021aa4                MUX_INT
                0x00021b8c                MUX_SINT
                0x00021c70                MUX_BOOL
                0x00021d50                EXPT_LREAL
                0x00021d98                EXPT_REAL
                0x00021e04                SUB_LREAL
                0x00021e4c                SUB_REAL
                0x00021e8c                LOG_REAL
                0x00021eec                ACOS_REAL
                0x00021f7c                ASIN_REAL
                0x0002200c                TAN_LREAL
                0x00022054                REAL_TO_DWORD
                0x000220bc                LWORD_TO_DWORD
                0x00022104                ULINT_TO_DWORD
                0x0002214c                UDINT_TO_DWORD
                0x00022150                LINT_TO_DWORD
                0x00022198                DINT_TO_DWORD
                0x000221cc                INT_TO_DWORD
                0x00022200                SINT_TO_DWORD
                0x00022234                LREAL_TO_WORD
                0x000222bc                REAL_TO_WORD
                0x0002232c                MUL_REAL
                0x0002236c                ABS_SINT
                0x000223bc                TAN_REAL
                0x000223fc                EXP_REAL
                0x00022444                LOG_LREAL
                0x000224bc                ULINT_TO_WORD
                0x00022508                LINT_TO_WORD
                0x00022554                DINT_TO_WORD
                0x0002258c                MUL_LREAL
                0x000225d4                ADD_REAL
                0x00022614                ADD_LREAL
                0x0002265c                ACOS_LREAL
                0x00022718                ASIN_LREAL
                0x000227d4                EXP_LREAL
                0x0002281c                SQRT_REAL
                0x0002287c                ABS_LINT
                0x000228e0                ABS_DINT
                0x0002292c                ABS_INT
                0x0002297c                LN_REAL
                0x000229dc                LN_LREAL
                0x00022a54                SQRT_LREAL
                0x00022acc                LWORD_TO_WORD
                0x00022b18                DWORD_TO_WORD
                0x00022b50                DINT_TO_LWORD
                0x00022b8c                INT_TO_LWORD
                0x00022bc8                SINT_TO_LWORD
                0x00022c04                LREAL_TO_DWORD
                0x00022c88                REAL_TO_LWORD
                0x00022cf0                LREAL_TO_LWORD
                0x00022d70                LINT_TO_LWORD
                0x00022db4                UDINT_TO_WORD
                0x00022dec                ULINT_TO_UINT
                0x00022e38                UDINT_TO_UINT
                0x00022e70                LINT_TO_UINT
                0x00022ebc                DINT_TO_UINT
                0x00022ef4                INT_TO_UINT
                0x00022f28                SINT_TO_UINT
                0x00022f5c                LREAL_TO_USINT
                0x00022fe4                REAL_TO_USINT
                0x00023054                LWORD_TO_USINT
                0x00023094                UDINT_TO_USINT
                0x000230cc                UINT_TO_USINT
                0x00023104                LINT_TO_USINT
                0x00023144                DINT_TO_USINT
                0x0002317c                WORD_TO_USINT
                0x000231b4                ULINT_TO_USINT
                0x000231f4                DWORD_TO_USINT
                0x0002322c                INT_TO_USINT
                0x00023268                SINT_TO_USINT
                0x0002329c                LREAL_TO_LINT
                0x00023320                REAL_TO_LINT
                0x00023384                LWORD_TO_LINT
                0x000233c8                LWORD_TO_DINT
                0x00023410                DWORD_TO_DINT
                0x00023444                ULINT_TO_DINT
                0x0002348c                UDINT_TO_DINT
                0x000234c0                LINT_TO_DINT
                0x00023518                LREAL_TO_INT
                0x000235a4                REAL_TO_INT
                0x00023614                LWORD_TO_INT
                0x00023660                LREAL_TO_DINT
                0x000236e8                REAL_TO_DINT
                0x0002374c                ULINT_TO_LINT
                0x00023790                LINT_TO_ULINT
                0x000237d4                DINT_TO_ULINT
                0x00023810                INT_TO_ULINT
                0x0002384c                SINT_TO_ULINT
                0x00023888                LREAL_TO_UDINT
                0x0002390c                REAL_TO_UDINT
                0x00023974                LWORD_TO_UDINT
                0x000239bc                ULINT_TO_UDINT
                0x00023a04                LINT_TO_UDINT
                0x00023a4c                DINT_TO_UDINT
                0x00023a80                INT_TO_UDINT
                0x00023ab4                SINT_TO_UDINT
                0x00023ae8                LREAL_TO_UINT
                0x00023b70                REAL_TO_UINT
                0x00023be0                LWORD_TO_UINT
                0x00023c2c                DWORD_TO_UINT
                0x00023c64                UDINT_TO_BYTE
                0x00023c9c                UINT_TO_BYTE
                0x00023cd4                LINT_TO_BYTE
                0x00023d14                DINT_TO_BYTE
                0x00023d4c                INT_TO_BYTE
                0x00023d88                SINT_TO_BYTE
                0x00023dbc                LREAL_TO_ULINT
                0x00023e3c                REAL_TO_ULINT
                0x00023ea4                WORD_TO_BYTE
                0x00023edc                DWORD_TO_BYTE
                0x00023f14                ULINT_TO_BYTE
                0x00023f54                LEN_WSTRING
                0x00023f9c                LEN_STRING
                0x00023fe4                MOVE_STRING
                0x000240a4                MOVE_WSTRING
                0x00024168                STRING_TO_WSTRING
                0x00024298                CONCAT_WSTRING
                0x00024434                CONCAT_STRING
                0x000245c0                STRING_TO_UINT
                0x00024670                STRING_TO_INT
                0x00024728                STRING_TO_USINT
                0x000247d8                STRING_TO_SINT
                0x00024890                STRING_TO_BYTE
                0x00024940                STRING_TO_BOOL
                0x000249f0                STRING_TO_LREAL
                0x00024a6c                STRING_TO_WORD
                0x00024b1c                STRING_TO_REAL
                0x00024b98                STRING_TO_ULINT
                0x00024c1c                STRING_TO_UDINT
                0x00024cdc                STRING_TO_DINT
                0x00024dac                STRING_TO_LWORD
                0x00024e30                STRING_TO_DWORD
                0x00024ef0                STRING_TO_LINT
                0x00024f74                DIV_REAL
                0x00025008                DIV_LREAL
                0x000250c8                DIV_DINT
                0x00025138                DIV_LINT
                0x000251e8                DIV_INT
                0x00025260                DIV_SINT
                0x000252d8                DIVTIME
                0x00025348                GET_CURRENT_DATE_AND_TIME
                0x00025444                LE_STRING_N
                0x00025768                LE_WSTRING_N
                0x00025a98                DELETE_STRING
                0x00025b80                REPLACE_STRING
                0x00025cb0                MOD_USINT
                0x00025cf0                MOD_LINT
                0x00025d74                MOD_DWORD
                0x00025db4                MOD_WORD
                0x00025df4                MOD_DINT
                0x00025e48                MOD_INT
                0x00025ea8                MOD_BYTE
                0x00025ee8                MOD_ULINT
                0x00025f40                MOD_UDINT
                0x00025f80                MOD_UINT
                0x00025fc0                DIV_USINT
                0x00026000                MOD_SINT
                0x00026060                DIV_LWORD
                0x000260b4                MOD_LWORD
                0x0002610c                DIV_DWORD
                0x00026148                DIV_WORD
                0x00026188                DIV_BYTE
                0x000261c8                DIV_ULINT
                0x0002621c                DIV_UDINT
                0x00026258                DIV_UINT
                0x00026298                GT_STRING_N
                0x000265c8                GT_WSTRING_N
                0x00026904                RIGHT_WSTRING
                0x000269a8                LEFT_WSTRING
                0x00026a40                RIGHT_STRING
                0x00026ae4                LEFT_STRING
                0x00026b7c                MAX_STRING
                0x00026ce0                REPLACE_WSTRING
                0x00026ee8                MAX_WSTRING
                0x00027050                LIMIT_STRING
                0x000272dc                LIMIT_WSTRING
                0x00027578                EQ_WSTRING_N
                0x000278a0                EQ_STRING_N
                0x00027bbc                vt3_ieclib_test
 .text          0x00031c08     0x5900 C:\Program Files (x86)\VT3\resources\targets\TERA7\lib/\vt3_runtime\libvt3_runtime.a(lcd_dfb.obj)
                0x00031c08                getSuperDFB
                0x00031c18                getPrimarySurface
                0x00031c28                LcdGetScreenRes
                0x00031c48                LcdRefreshRect
                0x00031c84                LcdShutdown
                0x00031ccc                LcdSetClip
                0x00031d40                LcdResetClip
                0x00031d94                LcdFill
                0x00031ed0                LcdSetPixel
                0x00031fd8                LcdDrawBox
                0x0003257c                LcdDrawBoxRGB565Internal
                0x0003263c                LcdCircle
                0x00032b54                LcdLine
                0x00032c78                LcdLineLimit
                0x00032e0c                LcdLineLimitW
                0x000334d0                LcdTriangle
                0x00033724                LcdQuadrilateral
                0x000338d0                LcdGetFontMaxAdvance
                0x000338f0                LcdGetStringWidth
                0x00033930                LcdDrawTextDFB
                0x00033ab4                LcdDrawTextDFBThroughGlyphs
                0x00033e7c                LcdDrawFixAdvNumberDFB
                0x00034018                LcdDrawFixAdvNumberDFBThroughGlyphs
                0x000342c8                LcdRectangle
                0x0003459c                LcdRectangleWH
                0x000345fc                BarGraphColor
                0x00034998                LcdKeyEventReset
                0x000349bc                LcdColorKeyTest
                0x000349c4                LcdGetDrawingFlags
                0x000349f4                LcdSetDrawingFlags
                0x00034a18                LcdKeyEventHandler
                0x00034c14                LcdDrawText
                0x00034f50                LcdReleaseFont
                0x00034fa0                LcdLoadFont
                0x00035078                LcdGetFixAdvStringWidth
                0x00035278                IsSavedImage
                0x00035dc4                LcdDrawSubBitMapIcon
                0x00035e10                LcdDrawBitMapIcon
                0x00035f78                LcdDrawSubIcon
                0x00035fb4                LcdDrawIcon
                0x00035fd4                LcdGetImageDimension
                0x00035ffc                LcdSetBacklight
                0x000360c0                LcdSetBlank
                0x000360e0                LcdRefresh
                0x00036264                LcdInit
                0x000364f4                SaveImage
                0x00036fbc                LcdCircleW
 .text          0x00037508     0x57ec C:\Program Files (x86)\VT3\resources\targets\TERA7\lib/\vt3_runtime\libvt3_runtime.a(vt3_canlib.obj)
                0x00037508                rio_ARM2_init
                0x0003750c                rio_ARM2_read
                0x00037510                rio_ARM2_write
                0x00037514                rio_ARM2_config
                0x00037518                rio_ASA_360_CBP_init
                0x0003751c                rio_ASA_360_CBP_read
                0x00037520                rio_ASA_360_CBP_write
                0x00037524                rio_ASA_360_CBP_config
                0x00037528                vt3_check_alive_nodes
                0x000375e0                vt3_set_node_alive_flag
                0x00037608                vt3_is_node_alive
                0x00037644                RemoteRead_Init
                0x000376dc                vt3_can_schedule
                0x00037714                vt3_can_check_busoff
                0x00037730                REMOTE_STATUS
                0x000377c8                vt3_canlib_Management_Rx_Alarm
                0x00037844                CanWatchdog
                0x00037860                CanCheckAlarm
                0x00037ce8                vt3_get_canmsg
                0x00037d04                vt3_update_req
                0x00037d2c                vt3_update_completed
                0x00037d54                vt3_update_get_ack
                0x00037d88                vt3_can_daemon_version
                0x00037db0                vt3_change_cobid_rx
                0x00037fa0                vt3_change_cobid_tx
                0x00038190                vt3_set_can_param
                0x000384e8                vt3_send_canmsg
                0x00038574                REMOTE_READ
                0x00038884                REMOTE_READ_TIME_OF_DAY
                0x0003888c                REMOTE_READ_TIME
                0x00038894                REMOTE_READ_DATE
                0x0003889c                REMOTE_READ_REAL
                0x000388ac                REMOTE_READ_USINT
                0x000388c0                REMOTE_READ_UINT
                0x000388d4                REMOTE_READ_UDINT
                0x000388dc                REMOTE_READ_SINT
                0x000388f0                REMOTE_READ_INT
                0x00038904                REMOTE_READ_DINT
                0x0003890c                REMOTE_READ_BYTE
                0x00038920                REMOTE_READ_WORD
                0x00038934                REMOTE_READ_DWORD
                0x0003893c                REMOTE_READ_BOOL
                0x00038950                Func_request_Read_Alarm_Status
                0x00038a08                Func_request_Acknowledge_Alarm
                0x00038a9c                Func_request_Read_Event_Log
                0x00038b58                Can_buffer_used_Tx
                0x00038b78                vt3_common_init_interface
                0x00038efc                vt3_init_interface
                0x000391b4                REMOTE_DEVICE_STATUS
                0x000394a4                decrement_can_timers
                0x00039ec0                REMOTE_RELEASE_FORCE
                0x00039f04                REMOTE_FORCE_VARLEN
                0x00039f94                REMOTE_WRITE_TIME_OF_DAY
                0x00039f9c                REMOTE_WRITE_TIME
                0x00039fa4                REMOTE_WRITE_DATE
                0x00039fac                REMOTE_WRITE_REAL
                0x00039fb4                REMOTE_WRITE_USINT
                0x00039fbc                REMOTE_WRITE_UINT
                0x00039fc4                REMOTE_WRITE_UDINT
                0x00039fcc                REMOTE_WRITE_SINT
                0x00039fd4                REMOTE_WRITE_INT
                0x00039fdc                REMOTE_WRITE_DINT
                0x00039fe4                REMOTE_WRITE_BYTE
                0x00039fec                REMOTE_WRITE_WORD
                0x00039ff4                REMOTE_WRITE_DWORD
                0x00039ffc                REMOTE_WRITE_BOOL
                0x0003a004                REMOTE_FORCE_USINT
                0x0003a090                REMOTE_FORCE_UINT
                0x0003a11c                REMOTE_FORCE_UDINT
                0x0003a1a8                REMOTE_FORCE_SINT
                0x0003a234                REMOTE_FORCE_INT
                0x0003a2c0                REMOTE_FORCE_DINT
                0x0003a34c                REMOTE_FORCE_BYTE
                0x0003a3d8                REMOTE_FORCE_WORD
                0x0003a464                REMOTE_FORCE_DWORD
                0x0003a4f0                REMOTE_FORCE_BOOL
                0x0003a9a0                vt3_transmit_EL_write
                0x0003c8d0                CanRxAllRead
 .text          0x0003ccf4     0x1248 C:\Program Files (x86)\VT3\resources\targets\TERA7\lib/\vt3_runtime\libvt3_runtime.a(vt3_canlib_testable.obj)
                0x0003ccf4                vt3_get_received_j1939_sa
                0x0003cd04                vt3_apply_cobid_change
                0x0003d020                vt3_J1939_process_received_MP
                0x0003d33c                vt3_J1939_process_received_DT
                0x0003d440                vt3_J1939_process_received_BAM
                0x0003d7dc                vt3_canlib_process_received_message
                0x0003dbc8                vt3_J1939_decrement_timers
 .text          0x0003df3c     0x5d08 C:\Program Files (x86)\VT3\resources\targets\TERA7\lib/\vt3_runtime\libvt3_runtime.a(vt3_elog.obj)
                0x0003df6c                ALM_login_state
                0x0003e068                ALM_set_login_state
                0x0003e168                ALM_init_login_cycles_timeout
                0x0003e26c                write_vt3_devices_alarm_status
                0x0003e380                ALM_all_sum
                0x0003e574                EL_write_answer
                0x0003e754                EL_reset_vars
                0x0003e92c                EL_poll_read
                0x0003eb48                EL_poll_write
                0x0003ed60                crc16_generic
                0x0003eee8                EL_get_failure_count
                0x0003f0c4                ALM_set
                0x0003f13c                ALM_rtn
                0x0003f1e4                ALM_seek_local_SPN_FMI
                0x0003f4b0                ALM_ack_local
                0x0003f4f0                ALM_get
                0x0003f51c                ALM_poll_set
                0x0003f574                ALM_slot_free
                0x0003f594                ALM_poll
                0x0003f60c                ALM_filter_local
                0x0003fa08                ALM_SPN_FMI_PRI_TO_AGUID
                0x0003fa28                ALM_AGUID_TO_SPN
                0x0003fa38                ALM_AGUID_TO_FMI
                0x0003fa40                ALM_AGUID_TO_PRI
                0x0003fa48                ALM_filter
                0x0003fc14                ALM_seek_local_AGUID
                0x0003fc78                ALM_Group_To_IDS_index
                0x0003fccc                ALM_Priority_To_IDS_index
                0x0003fd20                ALM_spn_To_IDS_index
                0x0003fd74                ALM_Fmi_To_IDS_index
                0x0003fdc8                EL_poll_read_set
                0x00040000                EL_initialize
                0x00040084                EL_shutdown
                0x000402b0                EL_crc16
                0x00040670                EL_read_local
                0x00040b3c                EL_read
                0x00040dc4                EL_format_local
                0x0004120c                ALM_SPN_To_IDS_index
                0x00041260                ALM_FMI_To_IDS_index
                0x000412b4                ALM_ack_AGUID
                0x00041398                EL_write_local
                0x00041718                EL_write
                0x0004206c                EL_task
 .text          0x00043c44     0x3050 C:\Program Files (x86)\VT3\resources\targets\TERA7\lib/\vt3_runtime\libvt3_runtime.a(vt3_lcd_3b6.obj)
                0x00043c44                vt3_LoadFont
                0x00043c4c                vt3_draw_indicator_PlaceHolder
                0x00043c68                vt3_set_camera_background_color
                0x00043c80                vt3_draw_indicator_PhysicalKey
                0x00043d20                vt3_draw_indicator_ReaderPNG
                0x00043d24                vt3_draw_indicator_PhysicalIndicator
                0x00043f20                vt3_draw_indicator_SimpleTriangle
                0x00044078                vt3_draw_indicator_SimpleCircle
                0x000441ec                vt3_draw_indicator_SimpleRect
                0x0004439c                vt3_draw_indicator_SimpleLine
                0x00044448                vt3_draw_image_haligned
                0x00044988                vt3_is_saved_image
                0x0004498c                vt3_save_image
                0x00044990                vt3_FormatDecimalNum
                0x00044a08                vt3_release_shaped_strings_from_cache
                0x00044aa0                vt3_LoadFontLate
                0x00044ae0                vt3_LcdShutdown
                0x00044b54                vt3_LcdInit
                0x00044bfc                vt3_draw_indicator_CircularGauge
                0x00044ec0                vt3_draw_indicator_PAL_Camera
                0x00045700                vt3_draw_text
                0x000457bc                GetStrLenFromPixelLen
                0x0004589c                GetStringPixelLength
                0x00045db0                vt3_draw_text_len
                0x00045e78                vt3_draw_indicator_Number
                0x00046304                vt3_draw_image_with_offset
                0x000466e4                vt3_draw_image
                0x00046724                vt3_draw_indicator_GaugeBar
                0x00046b64                vt3_draw_indicator_SubScreen
                0x00046bf4                vt3_draw_indicator_MultiBitmap
 .text          0x00046c94     0xfe4c C:\Program Files (x86)\VT3\resources\targets\TERA7\lib/\vt3_runtime\libvt3_runtime.a(vt3_lcd_tl.obj)
                0x00046c94                vt3_get_pressed_char
                0x00046ca4                vt3_schedule
                0x00046cf0                vt3_has_focus
                0x00046e44                vt3_virtual_keyboard_key_handler
                0x000472c8                vt3_convert_number_to_string_with_mask
                0x00047b80                vt3_focus_indicator_search_forward
                0x00047ce8                vt3_focus_indicator_search_backward
                0x00047e94                vt3_convert_dword2color
                0x00047eb8                vt3_set_focus_null
                0x00047ef4                vt3_get_grid_cell_x
                0x00047f18                vt3_get_grid_cell_y
                0x00047f30                vt3_get_grid_cell_w
                0x00047f48                vt3_get_grid_cell_h
                0x00047f54                vt3_get_grid_cell_row
                0x000480e4                vt3_get_grid_cell_col
                0x000482c8                vt3_set_knob_sel_null
                0x00048300                vt3_testbench_inject_touch_down_event
                0x0004832c                vt3_testbench_inject_touch_up_event
                0x000487f8                vt3_trend_drawLabel
                0x0004884c                vt3_end_callback_knob
                0x00048858                vt3_start_callback_knob
                0x00048864                vt3_draw_indicator_Grid
                0x00048aa8                vt3_draw_indicator_SimpleText
                0x00048b90                vt3_draw_selection_border
                0x00048fa0                vt3_convert_string_with_mask_to_number
                0x00049cc4                vt3_draw_on_screen_keyboard
                0x0004a448                vt3_set_knob_sel_indicator
                0x0004a47c                vt3_set_focus_indicator
                0x0004a4f0                vt3_draw_indicator_Screen
                0x0004a5b4                vt3_draw_indicator_AlarmQuick
                0x0004ad6c                translate_alarm_status
                0x0004ae30                vt3_draw_indicator_MultiText
                0x0004b248                vt3_set_knob_sel_next
                0x0004b250                vt3_set_focus_next
                0x0004b258                vt3_set_focus_first
                0x0004b29c                vt3_set_knob_sel_first
                0x0004b2dc                vt3_draw_indicator_AlarmLogTable
                0x0004d340                vt3_draw_indicator_Menu
                0x0004eb34                vt3_draw_indicator_Touch
                0x0004eff4                vt3_draw_indicator_SimpleTextEditable
                0x00050e3c                vt3_draw_indicator_NumberEditable
                0x00051dfc                vt3_set_prev
                0x0005211c                vt3_set_knob_sel_prev
                0x00052124                vt3_set_focus_prev
                0x0005212c                vt3_disp_knob
                0x00052438                vt3_set_focus_index
                0x0005264c                vt3_look_for_focus_index
                0x00052e38                vt3_draw_indicator_AlarmSummary
                0x000552fc                vt3_draw_indicator_AlarmLogDetail
 .text          0x00056ae0      0x488 C:\Program Files (x86)\VT3\resources\targets\TERA7\lib/\vt3_runtime\libvt3_runtime.a(vt3_lcd_tl_testable.obj)
                0x00056ae0                vt3_indicator_touch_process_touch_knob_input
                0x00056d3c                vt3_num_digits
                0x00056d74                vt3_calculate_integer_fractional_parts
                0x00056e74                vt3_FormatDecimalNumEditable
 .text          0x00056f68       0x28 vt3_code/vt3_lang.obj
                0x00056f68                TRANSLATE
 .text          0x00056f90       0x28 vt3_code/vt3_fonts.obj
                0x00056f90                vt3_load_all_fonts
 .text          0x00056fb8       0x24 vt3_code/vt3_IO.obj
                0x00056fb8                vt3_IO_cycle
                0x00056fbc                vt3_IO_init
 .text          0x00056fdc        0x0 vt3_code/vt3_alarms.obj
 .text          0x00056fdc        0x4 vt3_code/vt3_POU__iocore_data.obj
                0x00056fdc                iocore_data__init
 .text          0x00056fe0        0x4 vt3_code/vt3_POU__global_data.obj
                0x00056fe0                global_data__init
 .text          0x00056fe4        0x4 vt3_code/vt3_POU__setup_data.obj
                0x00056fe4                setup_data__init
 .text          0x00056fe8        0x4 vt3_code/vt3_POU__splash_data.obj
                0x00056fe8                splash_data__init
 .text          0x00056fec        0x4 vt3_code/vt3_POU__home_data.obj
                0x00056fec                home_data__init
 .text          0x00056ff0       0xe4 vt3_code/vt3_POU__PLC_PRG.obj
                0x00056ff0                PLC_PRG__call
                0x000570b4                PLC_PRG__init
 .text          0x000570d4      0x510 vt3_code/vt3_POU__assignIO.obj
                0x000570d4                assignIO__call
                0x000575c4                assignIO__init
 .text          0x000575e4       0x78 vt3_code/vt3_POU__doBrightness.obj
                0x000575e4                doBrightness__call
                0x0005763c                doBrightness__init
 .text          0x0005765c      0x128 vt3_code/vt3_POU__usbUpdate.obj
                0x0005765c                usbUpdate__call
                0x00057764                usbUpdate__init
 .text          0x00057784      0x5b0 vt3_code/vt3_POU__outputs.obj
                0x00057784                outputs__call
                0x00057d14                outputs__init
 .text          0x00057d34       0x70 vt3_code/vt3_POU__task100.obj
                0x00057d34                task100__call
                0x00057d84                task100__init
 .text          0x00057da4       0xd8 vt3_code/vt3_POU__slaveConfig.obj
                0x00057da4                slaveConfig__call
                0x00057e5c                slaveConfig__init
 .text          0x00057e7c       0x78 vt3_code/vt3_POU__slaveConfigFB_CPU0.obj
                0x00057e7c                slaveConfigFB_CPU0__call
                0x00057ed4                slaveConfigFB_CPU0__init
 .text          0x00057ef4       0x78 vt3_code/vt3_POU__slaveConfigFB_CPU1.obj
                0x00057ef4                slaveConfigFB_CPU1__call
                0x00057f4c                slaveConfigFB_CPU1__init
 .text          0x00057f6c       0x70 vt3_code/vt3_POU__interpol.obj
                0x00057f6c                interpol
 .text          0x00057fdc       0xa4 vt3_code/vt3_POU_common.obj
                0x00057fec                vt3_init_all_pous
                0x00058070                vt3_idle_task
 .text          0x00058080        0x0 vt3_code/vt3_vars.obj
 .text          0x00058080        0x0 vt3_code/vt3_var_version.obj
 .text          0x00058080       0x44 vt3_code/vt3_init_persistent_p_array.obj
                0x00058080                initialize_bytearray_P
 .text          0x000580c4       0x14 vt3_code/vt3_init_persistent_r_array.obj
                0x000580c4                initialize_bytearray_R
 .text          0x000580d8       0x14 vt3_code/vt3_init_persistent_f_array.obj
                0x000580d8                initialize_bytearray_F
 .text          0x000580ec      0x7e4 vt3_code/vt3_CAN__CanInterface.obj
                0x000582f0                vt3_can_send_sync_CO_NMT
                0x00058350                vt3_can_CanInterface_tx
                0x00058508                vt3_can_CanInterface_rx
                0x000587a4                vt3_can_CanInterface_init
 .text          0x000588d0        0xc vt3_code/vt3_CAN_common.obj
                0x000588d0                vt3_can_tx
                0x000588d4                vt3_can_rx
                0x000588d8                vt3_can_init
 .text          0x000588dc        0x0 vt3_code/vt3_signature.obj
 .text          0x000588dc     0x19e8 vt3_code/vt3_disp_events.obj
                0x000588dc                vt3_event_ind_camera
                0x00058920                vt3_event_ind_home
                0x00059100                vt3_event_ind_home_Logo_multibitmap
                0x0005910c                vt3_event_ind_home_F1_Button
                0x00059120                vt3_event_ind_home_F1_Text_1
                0x00059130                vt3_event_ind_home_F2_Button
                0x00059144                vt3_event_ind_home_F2_Text_1
                0x00059154                vt3_event_ind_home_F2_Auto_Man
                0x00059168                vt3_event_ind_home_F3_Button
                0x0005917c                vt3_event_ind_home_F3_Text_1
                0x0005918c                vt3_event_ind_home_F4_Button
                0x000591a0                vt3_event_ind_home_F4_Text_1
                0x000591b0                vt3_event_ind_home_F5_Button
                0x000591c4                vt3_event_ind_home_F5_Text_1
                0x000591d4                vt3_event_ind_home_F6_Button
                0x000591e8                vt3_event_ind_home_F6_Text_1
                0x000591f8                vt3_event_ind_home_F9_Button
                0x0005920c                vt3_event_ind_home_F9_Text_1
                0x0005921c                vt3_event_ind_home_F10_Button
                0x00059230                vt3_event_ind_home_F10_Text_1
                0x00059240                vt3_event_ind_home_Kennel_Layout_Temp_1_multibitmap
                0x00059254                vt3_event_ind_home_Kennel_Layout_Temp_1_Temp
                0x00059268                vt3_event_ind_home_Kennel_Layout_Temp_1_multitext
                0x0005927c                vt3_event_ind_home_Kennel_Layout_Temp_1_simple_text
                0x0005928c                vt3_event_ind_home_Kennel_Layout_Temp_2_multibitmap
                0x000592a0                vt3_event_ind_home_Kennel_Layout_Temp_2_Temp
                0x000592b4                vt3_event_ind_home_Kennel_Layout_Temp_2_multitext
                0x000592c8                vt3_event_ind_home_Kennel_Layout_Temp_2_simple_text
                0x000592d8                vt3_event_ind_home_Kennel_Layout_Temp_3_multibitmap
                0x000592ec                vt3_event_ind_home_Kennel_Layout_Temp_3_Temp
                0x00059300                vt3_event_ind_home_Kennel_Layout_Temp_3_multitext
                0x00059314                vt3_event_ind_home_Kennel_Layout_Temp_3_simple_text
                0x00059324                vt3_event_ind_home_Kennel_Layout_Temp_4_multibitmap
                0x00059338                vt3_event_ind_home_Kennel_Layout_Temp_4_Temp
                0x0005934c                vt3_event_ind_home_Kennel_Layout_Temp_4_multitext
                0x00059360                vt3_event_ind_home_Kennel_Layout_Temp_4_simple_text
                0x00059370                vt3_event_ind_home_Kennel_Layout_Temp_5_multibitmap
                0x00059384                vt3_event_ind_home_Kennel_Layout_Temp_5_Temp
                0x00059398                vt3_event_ind_home_Kennel_Layout_Temp_5_multitext
                0x000593ac                vt3_event_ind_home_Kennel_Layout_Temp_5_simple_text
                0x000593bc                vt3_event_ind_home_Kennel_Layout_Temp_6_multibitmap
                0x000593d0                vt3_event_ind_home_Kennel_Layout_Temp_6_Temp
                0x000593e4                vt3_event_ind_home_Kennel_Layout_Temp_6_multitext
                0x000593f8                vt3_event_ind_home_Kennel_Layout_Temp_6_simple_text
                0x00059408                vt3_event_ind_home_multitext
                0x0005941c                vt3_event_ind_home_simple_text
                0x0005942c                vt3_event_ind_screen_frame
                0x00059430                vt3_event_ind_screen_frame_screen_backlight
                0x00059444                vt3_event_ind_screen_frame_buzzer
                0x00059458                vt3_event_ind_screen_frame_keys_backlight
                0x0005946c                vt3_event_ind_setup
                0x00059e4c                vt3_event_ind_setup_Logo_multibitmap
                0x00059e58                vt3_event_ind_setup_AC_BG_1
                0x00059e6c                vt3_event_ind_setup_AC_BG_1_1
                0x00059e80                vt3_event_ind_setup_AC_BG_2
                0x00059e94                vt3_event_ind_setup_AC_BG_2_2
                0x00059ea8                vt3_event_ind_setup_AC_ac_setpoint_text
                0x00059eb8                vt3_event_ind_setup_AC_ac_sp_unit_text
                0x00059ecc                vt3_event_ind_setup_AC_ac_sp_degree_text
                0x00059edc                vt3_event_ind_setup_AC_ac_deadband_text
                0x00059eec                vt3_event_ind_setup_AC_ac_db_unit_text
                0x00059f00                vt3_event_ind_setup_AC_ac_db_degree_text
                0x00059f10                vt3_event_ind_setup_Heat_BG_3
                0x00059f24                vt3_event_ind_setup_Heat_BG_3_1
                0x00059f38                vt3_event_ind_setup_Heat_BG_4
                0x00059f4c                vt3_event_ind_setup_Heat_BG_4_1
                0x00059f60                vt3_event_ind_setup_Heat_heat_setpoint_text
                0x00059f70                vt3_event_ind_setup_Heat_heat_sp_unit_text
                0x00059f84                vt3_event_ind_setup_Heat_heat_sp_degree_text
                0x00059f94                vt3_event_ind_setup_Heat_heat_deadband_text
                0x00059fa4                vt3_event_ind_setup_Heat_heat_db_unit_text
                0x00059fb8                vt3_event_ind_setup_Heat_heat_db_degree_text
                0x00059fc8                vt3_event_ind_setup_HVAC_Alarms_BG_5
                0x00059fdc                vt3_event_ind_setup_HVAC_Alarms_BG_5_1
                0x00059ff0                vt3_event_ind_setup_HVAC_Alarms_BG_6
                0x0005a004                vt3_event_ind_setup_HVAC_Alarms_BG_6_1
                0x0005a018                vt3_event_ind_setup_HVAC_Alarms_lower_alarm_setpoint_text
                0x0005a028                vt3_event_ind_setup_HVAC_Alarms_lower_alarm_sp_unit_text
                0x0005a03c                vt3_event_ind_setup_HVAC_Alarms_lower_alarm_sp_degree_text
                0x0005a04c                vt3_event_ind_setup_HVAC_Alarms_upper_alarm_setpoint_text
                0x0005a05c                vt3_event_ind_setup_HVAC_Alarms_upper_alarm_setpoint_unit_text
                0x0005a070                vt3_event_ind_setup_HVAC_Alarms_upper_alarm_setpoint_degree_text
                0x0005a080                vt3_event_ind_setup_F10_Button
                0x0005a08c                vt3_event_ind_setup_F10_Text_1
                0x0005a09c                vt3_event_ind_setup_simple_text
                0x0005a0ac                vt3_event_ind_splash
                0x0005a120                vt3_event_ind_splash_multibitmap
                0x0005a12c                vt3_event_ind_setup_HVAC_Alarms_upper_alarm_setpoint_number
                0x0005a170                vt3_event_ind_setup_HVAC_Alarms_lower_alarm_setpoint_number
                0x0005a1b4                vt3_event_ind_setup_Heat_heat_deadband_number
                0x0005a1f8                vt3_event_ind_setup_Heat_heat_setpoint_number
                0x0005a23c                vt3_event_ind_setup_AC_ac_deadband_number
                0x0005a280                vt3_event_ind_setup_AC_ac_setpoint_number
 .text          0x0005a2c4        0x0 vt3_code/vt3_images.obj
 .text          0x0005a2c4      0xb0c vt3_code/vt3_disp.obj
                0x0005a2c4                vt3_trend_sampling_init
                0x0005a2c8                vt3_trend_sampling
                0x0005a2cc                vt3_draw_ind_splash
                0x0005a300                vt3_init_ind_splash
                0x0005a330                vt3_init_ind_setup
                0x0005a360                vt3_init_ind_screen_frame
                0x0005a390                vt3_init_ind_home
                0x0005a3c0                vt3_init_ind_camera
                0x0005a3f0                vt3_draw_ind_setup
                0x0005a624                vt3_draw_ind_screen_frame
                0x0005a768                vt3_draw_ind_home
                0x0005aa20                vt3_draw_ind_camera
                0x0005aa54                vt3_disp_init
                0x0005ac30                vt3_disp_draw
 .text          0x0005add0       0xa8 vt3_code/vt3_slaves.obj
                0x0005add0                vt3_initialize_io_slave_function_blocks
 .text          0x0005ae78        0x0 extra/vt3_extra.obj
 .text          0x0005ae78        0x0 C:/Users/hurdj00/Desktop/HARTST~1.1/code/Tera_7/__OBJE~1/vt3_extra.obj
 .text          0x0005ae78        0x0 C:/Users/hurdj00/Desktop/HARTST~1.1/code/Tera_7/__OBJE~1/vt3_POU__ARR_BYTE_version.obj
 .text          0x0005ae78       0x58 C:/Users/hurdj00/Desktop/HARTST~1.1/code/Tera_7/__OBJE~1/vt3_POU__BYTE_TO_ASCII.obj
                0x0005ae78                BYTE_TO_ASCII__call
                0x0005aea0                BYTE_TO_ASCII__init
 .text          0x0005aed0       0x54 C:/Users/hurdj00/Desktop/HARTST~1.1/code/Tera_7/__OBJE~1/vt3_POU__check_touchcalibration.obj
                0x0005aed0                check_touchcalibration
 .text          0x0005af24       0x48 C:/Users/hurdj00/Desktop/HARTST~1.1/code/Tera_7/__OBJE~1/vt3_POU__GET_POWER_FAIL.obj
                0x0005af24                GET_POWER_FAIL__call
                0x0005af4c                GET_POWER_FAIL__init
 .text          0x0005af6c       0xec C:/Users/hurdj00/Desktop/HARTST~1.1/code/Tera_7/__OBJE~1/vt3_POU__get_prj_version.obj
                0x0005af6c                get_prj_version__call
                0x0005afc0                get_prj_version__init
 .text          0x0005b058       0x6c C:/Users/hurdj00/Desktop/HARTST~1.1/code/Tera_7/__OBJE~1/vt3_POU__get_prj_version_byte.obj
                0x0005b058                get_prj_version_byte__call
                0x0005b0a4                get_prj_version_byte__init
 .text          0x0005b0c4       0x64 C:/Users/hurdj00/Desktop/HARTST~1.1/code/Tera_7/__OBJE~1/vt3_POU__INIT_BYTEARRAY_P.obj
                0x0005b0c4                INIT_BYTEARRAY_P__call
                0x0005b108                INIT_BYTEARRAY_P__init
 .text          0x0005b128       0xac C:/Users/hurdj00/Desktop/HARTST~1.1/code/Tera_7/__OBJE~1/vt3_POU__INIT_BYTEARRAY_R.obj
                0x0005b128                INIT_BYTEARRAY_R__call
                0x0005b1b4                INIT_BYTEARRAY_R__init
 .text          0x0005b1d4       0x7c C:/Users/hurdj00/Desktop/HARTST~1.1/code/Tera_7/__OBJE~1/vt3_POU__INIT_SD_USB.obj
                0x0005b1d4                INIT_SD_USB__call
                0x0005b230                INIT_SD_USB__init
 .text          0x0005b250       0x48 C:/Users/hurdj00/Desktop/HARTST~1.1/code/Tera_7/__OBJE~1/vt3_POU__lcdSetBlank.obj
                0x0005b250                lcdSetBlank__call
                0x0005b278                lcdSetBlank__init
 .text          0x0005b298       0x98 C:/Users/hurdj00/Desktop/HARTST~1.1/code/Tera_7/__OBJE~1/vt3_POU__mountSD.obj
                0x0005b298                mountSD
 .text          0x0005b330       0x4c C:/Users/hurdj00/Desktop/HARTST~1.1/code/Tera_7/__OBJE~1/vt3_POU__mountUSB.obj
                0x0005b330                mountUSB
 .text          0x0005b37c       0x44 C:/Users/hurdj00/Desktop/HARTST~1.1/code/Tera_7/__OBJE~1/vt3_POU__REBOOT.obj
                0x0005b37c                REBOOT__call
                0x0005b3a0                REBOOT__init
 .text          0x0005b3c0       0x28 C:/Users/hurdj00/Desktop/HARTST~1.1/code/Tera_7/__OBJE~1/vt3_POU__req_touchcalibration.obj
                0x0005b3c0                req_touchcalibration
 .text          0x0005b3e8       0x40 C:/Users/hurdj00/Desktop/HARTST~1.1/code/Tera_7/__OBJE~1/vt3_POU__SET_POWER_FAIL_SHUTDOWN.obj
                0x0005b3e8                SET_POWER_FAIL_SHUTDOWN__call
                0x0005b408                SET_POWER_FAIL_SHUTDOWN__init
 .text          0x0005b428       0x3c C:/Users/hurdj00/Desktop/HARTST~1.1/code/Tera_7/__OBJE~1/vt3_POU__SHUTDOWN.obj
                0x0005b428                SHUTDOWN__call
                0x0005b444                SHUTDOWN__init
 .text          0x0005b464        0x4 C:/Users/hurdj00/Desktop/HARTST~1.1/code/Tera_7/__OBJE~1/vt3_POU__ST_TRANSLATE.obj
                0x0005b464                ST_TRANSLATE
 .text          0x0005b468       0x34 C:/Users/hurdj00/Desktop/HARTST~1.1/code/Tera_7/__OBJE~1/vt3_POU__umountSD.obj
                0x0005b468                umountSD
 .text          0x0005b49c       0x34 C:/Users/hurdj00/Desktop/HARTST~1.1/code/Tera_7/__OBJE~1/vt3_POU__umountUSB.obj
                0x0005b49c                umountUSB
 .text          0x0005b4d0       0x7c C:/Users/hurdj00/Desktop/HARTST~1.1/code/Tera_7/__OBJE~1/vt3_POU__WRITE_EL.obj
                0x0005b4d0                WRITE_EL
 .text          0x0005b54c        0x0 C:/Users/hurdj00/Desktop/HARTST~1.1/code/Tera_7/__OBJE~1/vt3_POU__WRITE_EL_ENUM.obj
 .text          0x0005b54c      0x3a8 C:/Users/hurdj00/Desktop/HARTST~1.1/code/Tera_7/__OBJE~1/vt3_POU__WRITE_EL_PRIVATE.obj
                0x0005b54c                WRITE_EL_PRIVATE
 .text          0x0005b8f4       0x50 C:/Users/hurdj00/Desktop/HARTST~1.1/code/Tera_7/__OBJE~1/vt3_POU__WRITE_EL_TO_SD.obj
                0x0005b8f4                WRITE_EL_TO_SD__call
                0x0005b924                WRITE_EL_TO_SD__init
 .text          0x0005b944       0x50 C:/Users/hurdj00/Desktop/HARTST~1.1/code/Tera_7/__OBJE~1/vt3_POU__WRITE_EL_TO_USB.obj
                0x0005b944                WRITE_EL_TO_USB__call
                0x0005b974                WRITE_EL_TO_USB__init
 .text          0x0005b994      0x20c c:/progra~2/codeso~1/source~1/bin/../lib/gcc/arm-none-linux-gnueabi/4.4.1\libgcc.a(_udivsi3.o)
                0x0005b994                __aeabi_uidiv
                0x0005b994                __udivsi3
                0x0005bb80                __aeabi_uidivmod
 .text          0x0005bba0      0x240 c:/progra~2/codeso~1/source~1/bin/../lib/gcc/arm-none-linux-gnueabi/4.4.1\libgcc.a(_divsi3.o)
                0x0005bba0                __aeabi_idiv
                0x0005bba0                __divsi3
                0x0005bdc0                __aeabi_idivmod
 .text          0x0005bde0      0x3b8 c:/progra~2/codeso~1/source~1/bin/../lib/gcc/arm-none-linux-gnueabi/4.4.1\libgcc.a(_arm_addsubdf3.o)
                0x0005bde0                __aeabi_drsub
                0x0005bde8                __subdf3
                0x0005bde8                __aeabi_dsub
                0x0005bdec                __adddf3
                0x0005bdec                __aeabi_dadd
                0x0005c098                __aeabi_ui2d
                0x0005c098                __floatunsidf
                0x0005c0bc                __aeabi_i2d
                0x0005c0bc                __floatsidf
                0x0005c0e4                __aeabi_f2d
                0x0005c0e4                __extendsfdf2
                0x0005c124                __aeabi_ul2d
                0x0005c124                __floatundidf
                0x0005c138                __floatdidf
                0x0005c138                __aeabi_l2d
 .text          0x0005c198      0x470 c:/progra~2/codeso~1/source~1/bin/../lib/gcc/arm-none-linux-gnueabi/4.4.1\libgcc.a(_arm_muldivdf3.o)
                0x0005c198                __aeabi_dmul
                0x0005c198                __muldf3
                0x0005c404                __aeabi_ddiv
                0x0005c404                __divdf3
 .text          0x0005c608      0x12c c:/progra~2/codeso~1/source~1/bin/../lib/gcc/arm-none-linux-gnueabi/4.4.1\libgcc.a(_arm_cmpdf2.o)
                0x0005c608                __gedf2
                0x0005c608                __gtdf2
                0x0005c610                __ledf2
                0x0005c610                __ltdf2
                0x0005c618                __cmpdf2
                0x0005c618                __nedf2
                0x0005c618                __eqdf2
                0x0005c6a0                __aeabi_cdrcmple
                0x0005c6bc                __aeabi_cdcmple
                0x0005c6bc                __aeabi_cdcmpeq
                0x0005c6d0                __aeabi_dcmpeq
                0x0005c6e4                __aeabi_dcmplt
                0x0005c6f8                __aeabi_dcmple
                0x0005c70c                __aeabi_dcmpge
                0x0005c720                __aeabi_dcmpgt
 .text          0x0005c734       0x5c c:/progra~2/codeso~1/source~1/bin/../lib/gcc/arm-none-linux-gnueabi/4.4.1\libgcc.a(_arm_fixdfsi.o)
                0x0005c734                __aeabi_d2iz
                0x0005c734                __fixdfsi
 .text          0x0005c790       0x54 c:/progra~2/codeso~1/source~1/bin/../lib/gcc/arm-none-linux-gnueabi/4.4.1\libgcc.a(_arm_fixunsdfsi.o)
                0x0005c790                __aeabi_d2uiz
                0x0005c790                __fixunsdfsi
 .text          0x0005c7e4       0xa0 c:/progra~2/codeso~1/source~1/bin/../lib/gcc/arm-none-linux-gnueabi/4.4.1\libgcc.a(_arm_truncdfsf2.o)
                0x0005c7e4                __truncdfsf2
                0x0005c7e4                __aeabi_d2f
 .text          0x0005c884      0x250 c:/progra~2/codeso~1/source~1/bin/../lib/gcc/arm-none-linux-gnueabi/4.4.1\libgcc.a(_arm_addsubsf3.o)
                0x0005c884                __aeabi_frsub
                0x0005c88c                __subsf3
                0x0005c88c                __aeabi_fsub
                0x0005c890                __aeabi_fadd
                0x0005c890                __addsf3
                0x0005ca20                __aeabi_ui2f
                0x0005ca20                __floatunsisf
                0x0005ca28                __aeabi_i2f
                0x0005ca28                __floatsisf
                0x0005ca48                __floatundisf
                0x0005ca48                __aeabi_ul2f
                0x0005ca58                __aeabi_l2f
                0x0005ca58                __floatdisf
 .text          0x0005cad4      0x2f8 c:/progra~2/codeso~1/source~1/bin/../lib/gcc/arm-none-linux-gnueabi/4.4.1\libgcc.a(_arm_muldivsf3.o)
                0x0005cad4                __aeabi_fmul
                0x0005cad4                __mulsf3
                0x0005cc6c                __divsf3
                0x0005cc6c                __aeabi_fdiv
 .text          0x0005cdcc       0xfc c:/progra~2/codeso~1/source~1/bin/../lib/gcc/arm-none-linux-gnueabi/4.4.1\libgcc.a(_arm_cmpsf2.o)
                0x0005cdcc                __gtsf2
                0x0005cdcc                __gesf2
                0x0005cdd4                __ltsf2
                0x0005cdd4                __lesf2
                0x0005cddc                __eqsf2
                0x0005cddc                __cmpsf2
                0x0005cddc                __nesf2
                0x0005ce40                __aeabi_cfrcmple
                0x0005ce50                __aeabi_cfcmple
                0x0005ce50                __aeabi_cfcmpeq
                0x0005ce64                __aeabi_fcmpeq
                0x0005ce78                __aeabi_fcmplt
                0x0005ce8c                __aeabi_fcmple
                0x0005cea0                __aeabi_fcmpge
                0x0005ceb4                __aeabi_fcmpgt
 .text          0x0005cec8       0x5c c:/progra~2/codeso~1/source~1/bin/../lib/gcc/arm-none-linux-gnueabi/4.4.1\libgcc.a(_arm_fixsfsi.o)
                0x0005cec8                __aeabi_f2iz
                0x0005cec8                __fixsfsi
 .text          0x0005cf24       0x54 c:/progra~2/codeso~1/source~1/bin/../lib/gcc/arm-none-linux-gnueabi/4.4.1\libgcc.a(_arm_fixunssfsi.o)
                0x0005cf24                __fixunssfsi
                0x0005cf24                __aeabi_f2uiz
 .text          0x0005cf78       0x44 c:/progra~2/codeso~1/source~1/bin/../lib/gcc/arm-none-linux-gnueabi/4.4.1\libgcc.a(_aeabi_ldivmod.o)
                0x0005cf78                __aeabi_ldivmod
 .text          0x0005cfbc       0x3c c:/progra~2/codeso~1/source~1/bin/../lib/gcc/arm-none-linux-gnueabi/4.4.1\libgcc.a(_aeabi_uldivmod.o)
                0x0005cfbc                __aeabi_uldivmod
 .text          0x0005cff8       0x10 c:/progra~2/codeso~1/source~1/bin/../lib/gcc/arm-none-linux-gnueabi/4.4.1\libgcc.a(_dvmd_lnx.o)
                0x0005cff8                __aeabi_ldiv0
                0x0005cff8                __aeabi_idiv0
 .text          0x0005d008       0x40 c:/progra~2/codeso~1/source~1/bin/../lib/gcc/arm-none-linux-gnueabi/4.4.1\libgcc.a(_fixsfdi.o)
                0x0005d008                __fixsfdi
                0x0005d008                __aeabi_f2lz
 .text          0x0005d048       0x4c c:/progra~2/codeso~1/source~1/bin/../lib/gcc/arm-none-linux-gnueabi/4.4.1\libgcc.a(_fixdfdi.o)
                0x0005d048                __aeabi_d2lz
                0x0005d048                __fixdfdi
 .text          0x0005d094       0x60 c:/progra~2/codeso~1/source~1/bin/../lib/gcc/arm-none-linux-gnueabi/4.4.1\libgcc.a(_fixunssfdi.o)
                0x0005d094                __fixunssfdi
                0x0005d094                __aeabi_f2ulz
 .text          0x0005d0f4       0x5c c:/progra~2/codeso~1/source~1/bin/../lib/gcc/arm-none-linux-gnueabi/4.4.1\libgcc.a(_fixunsdfdi.o)
                0x0005d0f4                __fixunsdfdi
                0x0005d0f4                __aeabi_d2ulz
 .text          0x0005d150       0x80 c:/progra~2/codeso~1/source~1/bin/../lib/gcc/arm-none-linux-gnueabi/4.4.1\libgcc.a(bpabi.o)
                0x0005d150                __gnu_uldivmod_helper
                0x0005d190                __gnu_ldivmod_helper
 .text          0x0005d1d0      0x480 c:/progra~2/codeso~1/source~1/bin/../lib/gcc/arm-none-linux-gnueabi/4.4.1\libgcc.a(_divdi3.o)
                0x0005d1d0                __divdi3
 .text          0x0005d650      0x42c c:/progra~2/codeso~1/source~1/bin/../lib/gcc/arm-none-linux-gnueabi/4.4.1\libgcc.a(_udivdi3.o)
                0x0005d650                __udivdi3
 .text          0x0005da7c       0xd0 c:\progra~2\codeso~1\source~1\bin\../arm-none-linux-gnueabi/libc/usr/lib/libc_nonshared.a(elf-init.oS)
                0x0005da7c                __libc_csu_fini
                0x0005da80                __libc_csu_init
 *fill*         0x0005db4c        0x4 00000000
 .text          0x0005db50       0x10 c:\progra~2\codeso~1\source~1\bin\../arm-none-linux-gnueabi/libc/usr/lib/libc_nonshared.a(aeabi_read_tp.oS)
                0x0005db50                __aeabi_read_tp
 .text          0x0005db60        0x0 c:/progra~2/codeso~1/source~1/bin/../lib/gcc/arm-none-linux-gnueabi/4.4.1/crtend.o
 .text          0x0005db60        0x0 c:/progra~2/codeso~1/source~1/bin/../arm-none-linux-gnueabi/libc/usr/lib/crtn.o
 *(.gnu.warning)
 *(.glue_7t)
 .glue_7t       0x00000000        0x0 linker stubs
 *(.glue_7)
 .glue_7        0x00000000        0x0 linker stubs
 *(.vfp11_veneer)
 .vfp11_veneer  0x00000000        0x0 linker stubs
 *(.v4_bx)
 .v4_bx         0x00000000        0x0 linker stubs

.fini           0x0005db60        0x8
 *(.fini)
 .fini          0x0005db60        0x4 c:/progra~2/codeso~1/source~1/bin/../arm-none-linux-gnueabi/libc/usr/lib/crti.o
                0x0005db60                _fini
 .fini          0x0005db64        0x4 c:/progra~2/codeso~1/source~1/bin/../arm-none-linux-gnueabi/libc/usr/lib/crtn.o
                0x0005db68                PROVIDE (__etext, .)
                0x0005db68                PROVIDE (_etext, .)
                0x0005db68                PROVIDE (etext, .)

.rodata         0x0005db68     0x61f0
 *(.rodata .rodata.* .gnu.linkonce.r.*)
 .rodata.cst4   0x0005db68        0x4 c:/progra~2/codeso~1/source~1/bin/../arm-none-linux-gnueabi/libc/usr/lib/crt1.o
                0x0005db68                _IO_stdin_used
 .rodata        0x0005db6c      0x508 C:\Program Files (x86)\VT3\resources\targets\TERA7\lib/\vt3_runtime\libvt3_runtime.a(vt3_main.obj)
                0x0005df70                version_markers_and_number
 .rodata.str1.4
                0x0005e074      0x5bb C:\Program Files (x86)\VT3\resources\targets\TERA7\lib/\vt3_runtime\libvt3_runtime.a(vt3_main.obj)
                                0x5c4 (size before relaxing)
 *fill*         0x0005e62f        0x1 00
 .rodata        0x0005e630       0x60 C:\Program Files (x86)\VT3\resources\targets\TERA7\lib/\vt3_runtime\libvt3_runtime.a(vt3_pdf.obj)
 .rodata.str1.4
                0x0005e690      0x67e C:\Program Files (x86)\VT3\resources\targets\TERA7\lib/\vt3_runtime\libvt3_runtime.a(vt3_pdf.obj)
                                0x69c (size before relaxing)
 *fill*         0x0005ed0e        0x2 00
 .rodata.str1.4
                0x0005ed10       0x20 C:\Program Files (x86)\VT3\resources\targets\TERA7\lib/\vt3_runtime\libvt3_runtime.a(vt3_stats.obj)
                                 0x24 (size before relaxing)
 .rodata.str1.4
                0x0005ed30       0x83 C:\Program Files (x86)\VT3\resources\targets\TERA7\lib/\vt3_runtime\libvt3_runtime.a(vt3_task.obj)
                                 0x84 (size before relaxing)
 *fill*         0x0005edb3        0x1 00
 .rodata.str1.4
                0x0005edb4        0x5 C:\Program Files (x86)\VT3\resources\targets\TERA7\lib/\vt3_runtime\libvt3_runtime.a(vt3_trend.obj)
                                  0x8 (size before relaxing)
 *fill*         0x0005edb9        0x3 00
 .rodata.str1.4
                0x0005edbc      0x10b C:\Program Files (x86)\VT3\resources\targets\TERA7\lib/\vt3_runtime\libvt3_runtime.a(ieclib.obj)
                                0x114 (size before relaxing)
 *fill*         0x0005eec7        0x1 00
 .rodata        0x0005eec8       0xa4 C:\Program Files (x86)\VT3\resources\targets\TERA7\lib/\vt3_runtime\libvt3_runtime.a(lcd_dfb.obj)
 .rodata.str1.4
                0x0005ef6c      0x430 C:\Program Files (x86)\VT3\resources\targets\TERA7\lib/\vt3_runtime\libvt3_runtime.a(lcd_dfb.obj)
 .rodata        0x0005f39c      0x104 C:\Program Files (x86)\VT3\resources\targets\TERA7\lib/\vt3_runtime\libvt3_runtime.a(vt3_canlib.obj)
 .rodata.str1.4
                0x0005f4a0      0x245 C:\Program Files (x86)\VT3\resources\targets\TERA7\lib/\vt3_runtime\libvt3_runtime.a(vt3_canlib.obj)
                                0x254 (size before relaxing)
 *fill*         0x0005f6e5        0x3 00
 .rodata        0x0005f6e8      0x220 C:\Program Files (x86)\VT3\resources\targets\TERA7\lib/\vt3_runtime\libvt3_runtime.a(vt3_elog.obj)
 .rodata.str1.4
                0x0005f908       0x31 C:\Program Files (x86)\VT3\resources\targets\TERA7\lib/\vt3_runtime\libvt3_runtime.a(vt3_elog.obj)
                                 0x34 (size before relaxing)
 *fill*         0x0005f939        0x3 00
 .rodata        0x0005f93c       0x24 C:\Program Files (x86)\VT3\resources\targets\TERA7\lib/\vt3_runtime\libvt3_runtime.a(vt3_lcd_3b6.obj)
 .rodata.str1.4
                0x0005f960      0x21f C:\Program Files (x86)\VT3\resources\targets\TERA7\lib/\vt3_runtime\libvt3_runtime.a(vt3_lcd_3b6.obj)
                                0x248 (size before relaxing)
 *fill*         0x0005fb7f        0x1 00
 .rodata        0x0005fb80      0x2ec C:\Program Files (x86)\VT3\resources\targets\TERA7\lib/\vt3_runtime\libvt3_runtime.a(vt3_lcd_tl.obj)
                0x0005fb9c                vt3_indicator_VMT_ScreenModel
                0x0005fbb0                vt3_indicator_VMT_ScreenFrameModel
                0x0005fbc4                vt3_indicator_VMT_PhysicalKey
                0x0005fbd8                vt3_indicator_VMT_PhysicalIndicator
                0x0005fbec                vt3_indicator_VMT_GaugeBar
                0x0005fc00                vt3_indicator_VMT_CircularGauge
                0x0005fc14                vt3_indicator_VMT_SimpleLine
                0x0005fc28                vt3_indicator_VMT_SimpleRect
                0x0005fc3c                vt3_indicator_VMT_SimpleTriangle
                0x0005fc50                vt3_indicator_VMT_SimpleCircle
                0x0005fc64                vt3_indicator_VMT_PlaceHolder
                0x0005fc78                vt3_indicator_VMT_Number
                0x0005fc8c                vt3_indicator_VMT_NumberEditable
                0x0005fca0                vt3_indicator_VMT_MultiBitmap
                0x0005fcb4                vt3_indicator_VMT_SimpleText
                0x0005fcc8                vt3_indicator_VMT_MenuItem
                0x0005fcdc                vt3_indicator_VMT_Menu
                0x0005fcf0                vt3_indicator_VMT_MultiText
                0x0005fd04                vt3_indicator_VMT_SubScreen
                0x0005fd18                vt3_indicator_VMT_SubScreenPage
                0x0005fd2c                vt3_indicator_VMT_IndicatorGroup
                0x0005fd40                vt3_indicator_VMT_Grid
                0x0005fd54                vt3_indicator_VMT_PAL_Camera
                0x0005fd68                vt3_indicator_VMT_Touch
                0x0005fd7c                vt3_indicator_VMT_ISOBUS_VT
                0x0005fd90                vt3_indicator_VMT_PdfViewer
                0x0005fda4                vt3_indicator_VMT_SideWorkingArea
                0x0005fdb8                vt3_indicator_VMT_TopWorkingArea
                0x0005fdcc                vt3_indicator_VMT_RoundBubbleLevel
                0x0005fde0                vt3_indicator_VMT_VirtualWall
                0x0005fdf4                vt3_indicator_VMT_AlarmQuick
                0x0005fe08                vt3_indicator_VMT_AlarmSummary
                0x0005fe1c                vt3_indicator_VMT_AlarmLogTable
                0x0005fe30                vt3_indicator_VMT_AlarmLogDetail
                0x0005fe44                vt3_indicator_VMT_SimpleTextEditable
                0x0005fe58                vt3_indicator_VMT_Trend
 .rodata.str1.4
                0x0005fe6c      0x133 C:\Program Files (x86)\VT3\resources\targets\TERA7\lib/\vt3_runtime\libvt3_runtime.a(vt3_lcd_tl.obj)
                                0x158 (size before relaxing)
 *fill*         0x0005ff9f        0x1 00
 .rodata.str1.4
                0x0005ffa0       0x15 C:\Program Files (x86)\VT3\resources\targets\TERA7\lib/\vt3_runtime\libvt3_runtime.a(vt3_lcd_tl_testable.obj)
                                 0x18 (size before relaxing)
 *fill*         0x0005ffb5        0x3 00
 .rodata        0x0005ffb8       0xa4 vt3_code/vt3_lang.obj
 .rodata.str1.4
                0x0006005c       0x12 vt3_code/vt3_fonts.obj
                                 0x14 (size before relaxing)
 *fill*         0x0006006e        0x2 00
 .rodata        0x00060070      0x160 vt3_code/vt3_alarms.obj
                0x00060070                vt3_alarm_priority_count
                0x00060074                vt3_alarm_priority
                0x00060078                vt3_alarm_spn_count
                0x0006007c                vt3_alarm_spn
                0x00060084                vt3_alarm_fmi_count
                0x00060088                vt3_alarm_fmi
                0x0006008c                vt3_alarm_group_count
                0x00060090                vt3_alarm_group
                0x00060094                vt3_global_alarm_count
                0x00060098                vt3_alarm_definition_global
                0x000600a0                vt3_local_alarm_count
                0x000600a4                vt3_alarm_definition
                0x000600d0                vt3_alarm_index_spn_fmi
                0x000600d4                vt3_alarm_inhibition_functions
                0x00060114                vt3_repetition_info
                0x00060154                vt3_repetition_safe
                0x00060194                vt3_elog_count
                0x00060198                vt3_elog_description
 .rodata        0x000601d0        0x4 vt3_code/vt3_POU__PLC_PRG.obj
 .rodata        0x000601d4        0x4 vt3_code/vt3_POU__assignIO.obj
 .rodata        0x000601d8        0x4 vt3_code/vt3_POU__doBrightness.obj
 .rodata        0x000601dc        0x4 vt3_code/vt3_POU__usbUpdate.obj
 .rodata        0x000601e0        0x4 vt3_code/vt3_POU__outputs.obj
 .rodata        0x000601e4        0x4 vt3_code/vt3_POU__task100.obj
 .rodata        0x000601e8        0x4 vt3_code/vt3_POU__slaveConfig.obj
 .rodata        0x000601ec        0x4 vt3_code/vt3_POU__slaveConfigFB_CPU0.obj
 .rodata        0x000601f0        0x4 vt3_code/vt3_POU__slaveConfigFB_CPU1.obj
 *fill*         0x000601f4        0x4 00
 .rodata        0x000601f8       0xe0 vt3_code/vt3_POU_common.obj
                0x000601f8                vt3_endianness_table
                0x00060208                vt3_task_table
 .rodata        0x000602d8       0x8c vt3_code/vt3_vars.obj
                0x000602d8                vt3_const_prj_version
                0x000602f0                vt3_const_prj_name
                0x000602f8                vt3_const_dev_name
                0x00060300                vt3_device_properties_long_name
                0x00060308                vt3_device_properties_short_name
                0x0006030e                vt3_device_properties_has_touch_screen
                0x00060310                vt3_screen_count
                0x00060312                WELSD_OK
                0x00060314                WELSD_EL_READ_ERR
                0x00060316                WELSD_EL_EMPTY
                0x00060318                WELSD_EL_FILEOPEN_ERR
                0x0006031a                WELSD_EL_FILEWRITE_ERR
                0x0006031c                WELSD_EL_FILEWRITEBUFFER_ERR
                0x0006031e                WELSD_EL_MALLOC_ERR
                0x00060320                MOUNT_ERR
                0x00060322                UMOUNT_ERR
                0x00060324                BYTEM_SIZE_EXTERN
                0x00060328                BYTEP_SIZE_EXTERN
                0x0006032c                BYTER_SIZE_EXTERN
                0x00060330                BYTEI_SIZE_EXTERN
                0x00060334                BYTEQ_SIZE_EXTERN
                0x00060338                BYTES_SIZE_EXTERN
                0x0006033c                BYTEF_SIZE_EXTERN
                0x00060340                BYTEE_SIZE_EXTERN
                0x00060344                BYTEK_SIZE_EXTERN
                0x00060348                VT3_IO_COUNT_EXTERN
                0x0006034c                vt3_string_sizes
 .rodata        0x00060364       0x14 vt3_code/vt3_var_version.obj
                0x00060364                vt3_version
 .rodata        0x00060378       0x8c vt3_code/vt3_init_persistent_p_array.obj
 .rodata        0x00060404      0x1c0 vt3_code/vt3_CAN__CanInterface.obj
 .rodata        0x000605c4      0x1a0 vt3_code/vt3_CAN_common.obj
                0x000605c4                vt3_local_debug_source_address
                0x000605c5                vt3_devices_count
                0x000605c8                vt3_devices_debug_source_address
                0x000605cc                vt3_routing_table
                0x000606cc                vt3_CAN_source_address
                0x000606d0                vt3_CAN_bitrate
                0x000606d4                vt3_CAN_License
                0x000606e4                vt3_tx_cobid_count
                0x000606e8                vt3_tx_cobid_list_original
                0x00060700                vt3_rx_cobid_count
                0x00060704                vt3_rx_cobid_list_original
 .rodata        0x00060764       0x10 vt3_code/vt3_signature.obj
                0x00060764                vt3_signature_software
 .rodata        0x00060774      0x210 vt3_code/vt3_disp_events.obj
 .rodata        0x00060984       0xa0 vt3_code/vt3_images.obj
                0x00060984                vt3_BMP__BluButtonStyle1_0_0
                0x0006099c                vt3_BMP__GrnButtonStyle1_0_0
                0x000609b4                vt3_BMP__GryButtonStyle1_0_0
                0x000609cc                vt3_BMP__HartstraLogo1_0_0
                0x000609e0                vt3_BMP__HartstraLogo2_0_0
                0x000609f4                vt3_BMP__RedButtonStyle1_0_0
                0x00060a0c                vt3_BMP__YlwButtonStyle1_0_0
 .rodata        0x00060a24     0x2d2c vt3_code/vt3_disp.obj
                0x000610d8                vt3_screen_width
                0x000610dc                vt3_screen_height
                0x000610e0                vt3_focus_sequence_forward
                0x000610f4                vt3_focus_sequence_backward
                0x00061108                vt3_knob_sel_sequence_forward
                0x0006111c                vt3_knob_sel_sequence_backward
                0x00061130                vt3_screen_ks_ptr
 .rodata        0x00063750      0x218 vt3_code/vt3_slaves.obj
 .rodata.str1.4
                0x00063968       0x19 C:/Users/hurdj00/Desktop/HARTST~1.1/code/Tera_7/__OBJE~1/vt3_POU__check_touchcalibration.obj
                                 0x1c (size before relaxing)
 *fill*         0x00063981        0x3 00
 .rodata        0x00063984        0x4 C:/Users/hurdj00/Desktop/HARTST~1.1/code/Tera_7/__OBJE~1/vt3_POU__GET_POWER_FAIL.obj
 .rodata        0x00063988       0x18 C:/Users/hurdj00/Desktop/HARTST~1.1/code/Tera_7/__OBJE~1/vt3_POU__get_prj_version.obj
 .rodata        0x000639a0       0x18 C:/Users/hurdj00/Desktop/HARTST~1.1/code/Tera_7/__OBJE~1/vt3_POU__get_prj_version_byte.obj
 .rodata        0x000639b8        0x4 C:/Users/hurdj00/Desktop/HARTST~1.1/code/Tera_7/__OBJE~1/vt3_POU__INIT_BYTEARRAY_P.obj
 .rodata.str1.4
                0x000639bc       0x3e C:/Users/hurdj00/Desktop/HARTST~1.1/code/Tera_7/__OBJE~1/vt3_POU__INIT_BYTEARRAY_P.obj
                                 0x48 (size before relaxing)
 *fill*         0x000639fa        0x2 00
 .rodata        0x000639fc        0x4 C:/Users/hurdj00/Desktop/HARTST~1.1/code/Tera_7/__OBJE~1/vt3_POU__INIT_BYTEARRAY_R.obj
 .rodata.str1.4
                0x00000000       0x18 C:/Users/hurdj00/Desktop/HARTST~1.1/code/Tera_7/__OBJE~1/vt3_POU__INIT_BYTEARRAY_R.obj
 .rodata        0x00063a00        0x4 C:/Users/hurdj00/Desktop/HARTST~1.1/code/Tera_7/__OBJE~1/vt3_POU__INIT_SD_USB.obj
 .rodata.str1.4
                0x00063a04       0x65 C:/Users/hurdj00/Desktop/HARTST~1.1/code/Tera_7/__OBJE~1/vt3_POU__INIT_SD_USB.obj
                                 0x68 (size before relaxing)
 *fill*         0x00063a69        0x3 00
 .rodata        0x00063a6c        0x4 C:/Users/hurdj00/Desktop/HARTST~1.1/code/Tera_7/__OBJE~1/vt3_POU__lcdSetBlank.obj
 .rodata.str1.4
                0x00063a70      0x148 C:/Users/hurdj00/Desktop/HARTST~1.1/code/Tera_7/__OBJE~1/vt3_POU__mountSD.obj
                                0x15c (size before relaxing)
 .rodata.str1.4
                0x00063bb8       0xb0 C:/Users/hurdj00/Desktop/HARTST~1.1/code/Tera_7/__OBJE~1/vt3_POU__mountUSB.obj
 .rodata        0x00063c68        0x4 C:/Users/hurdj00/Desktop/HARTST~1.1/code/Tera_7/__OBJE~1/vt3_POU__REBOOT.obj
 .rodata.str1.4
                0x00063c6c        0x7 C:/Users/hurdj00/Desktop/HARTST~1.1/code/Tera_7/__OBJE~1/vt3_POU__REBOOT.obj
                                  0x8 (size before relaxing)
 *fill*         0x00063c73        0x1 00
 .rodata.str1.4
                0x00063c74       0x14 C:/Users/hurdj00/Desktop/HARTST~1.1/code/Tera_7/__OBJE~1/vt3_POU__req_touchcalibration.obj
                                 0x1c (size before relaxing)
 .rodata        0x00063c88        0x4 C:/Users/hurdj00/Desktop/HARTST~1.1/code/Tera_7/__OBJE~1/vt3_POU__SET_POWER_FAIL_SHUTDOWN.obj
 .rodata        0x00063c8c        0x4 C:/Users/hurdj00/Desktop/HARTST~1.1/code/Tera_7/__OBJE~1/vt3_POU__SHUTDOWN.obj
 .rodata.str1.4
                0x00063c90       0x12 C:/Users/hurdj00/Desktop/HARTST~1.1/code/Tera_7/__OBJE~1/vt3_POU__umountSD.obj
                                 0x54 (size before relaxing)
 .rodata.str1.4
                0x00000000       0x54 C:/Users/hurdj00/Desktop/HARTST~1.1/code/Tera_7/__OBJE~1/vt3_POU__umountUSB.obj
 *fill*         0x00063ca2        0x2 00
 .rodata.str1.4
                0x00063ca4       0xa4 C:/Users/hurdj00/Desktop/HARTST~1.1/code/Tera_7/__OBJE~1/vt3_POU__WRITE_EL_PRIVATE.obj
                                 0xac (size before relaxing)
 .rodata        0x00063d48        0x8 C:/Users/hurdj00/Desktop/HARTST~1.1/code/Tera_7/__OBJE~1/vt3_POU__WRITE_EL_TO_SD.obj
 .rodata        0x00063d50        0x8 C:/Users/hurdj00/Desktop/HARTST~1.1/code/Tera_7/__OBJE~1/vt3_POU__WRITE_EL_TO_USB.obj

.rodata1
 *(.rodata1)

.ARM.extab      0x00063d58      0x8a0
 *(.ARM.extab* .gnu.linkonce.armextab.*)
 .ARM.extab     0x00063d58        0x0 c:/progra~2/codeso~1/source~1/bin/../arm-none-linux-gnueabi/libc/usr/lib/crt1.o
 .ARM.extab     0x00063d58        0xc c:/progra~2/codeso~1/source~1/bin/../lib/gcc/arm-none-linux-gnueabi/4.4.1/crtbegin.o
 .ARM.extab     0x00063d64        0x0 C:\Program Files (x86)\VT3\resources\targets\TERA7\lib//vt3_runtime/harfbuzz_fribidi_wrapper_empty.o
 .ARM.extab     0x00063d64        0x0 C:\Program Files (x86)\VT3\resources\targets\TERA7\lib/\vt3_runtime\libvt3_runtime.a(vt3_main.obj)
 .ARM.extab     0x00063d64        0xc C:\Program Files (x86)\VT3\resources\targets\TERA7\lib/\vt3_runtime\libvt3_runtime.a(vt3_pdf.obj)
 .ARM.extab     0x00063d70       0x18 C:\Program Files (x86)\VT3\resources\targets\TERA7\lib/\vt3_runtime\libvt3_runtime.a(vt3_slaves.obj)
 .ARM.extab     0x00063d88        0xc C:\Program Files (x86)\VT3\resources\targets\TERA7\lib/\vt3_runtime\libvt3_runtime.a(vt3_stats.obj)
 .ARM.extab     0x00063d94        0x0 C:\Program Files (x86)\VT3\resources\targets\TERA7\lib/\vt3_runtime\libvt3_runtime.a(vt3_task.obj)
 .ARM.extab     0x00063d94        0x0 C:\Program Files (x86)\VT3\resources\targets\TERA7\lib/\vt3_runtime\libvt3_runtime.a(vt3_trend.obj)
 .ARM.extab     0x00063d94        0x0 C:\Program Files (x86)\VT3\resources\targets\TERA7\lib/\vt3_runtime\libvt3_runtime.a(akima_interpolator.obj)
 .ARM.extab     0x00063d94      0x630 C:\Program Files (x86)\VT3\resources\targets\TERA7\lib/\vt3_runtime\libvt3_runtime.a(ieclib.obj)
 .ARM.extab     0x000643c4       0x30 C:\Program Files (x86)\VT3\resources\targets\TERA7\lib/\vt3_runtime\libvt3_runtime.a(lcd_dfb.obj)
 .ARM.extab     0x000643f4       0x78 C:\Program Files (x86)\VT3\resources\targets\TERA7\lib/\vt3_runtime\libvt3_runtime.a(vt3_canlib.obj)
 .ARM.extab     0x0006446c        0x0 C:\Program Files (x86)\VT3\resources\targets\TERA7\lib/\vt3_runtime\libvt3_runtime.a(vt3_canlib_testable.obj)
 .ARM.extab     0x0006446c        0x0 C:\Program Files (x86)\VT3\resources\targets\TERA7\lib/\vt3_runtime\libvt3_runtime.a(vt3_elog.obj)
 .ARM.extab     0x0006446c       0x24 C:\Program Files (x86)\VT3\resources\targets\TERA7\lib/\vt3_runtime\libvt3_runtime.a(vt3_lcd_3b6.obj)
 .ARM.extab     0x00064490       0x30 C:\Program Files (x86)\VT3\resources\targets\TERA7\lib/\vt3_runtime\libvt3_runtime.a(vt3_lcd_tl.obj)
 .ARM.extab     0x000644c0        0x0 C:\Program Files (x86)\VT3\resources\targets\TERA7\lib/\vt3_runtime\libvt3_runtime.a(vt3_lcd_tl_testable.obj)
 .ARM.extab     0x000644c0        0x0 vt3_code/vt3_lang.obj
 .ARM.extab     0x000644c0        0x0 vt3_code/vt3_fonts.obj
 .ARM.extab     0x000644c0        0x0 vt3_code/vt3_IO.obj
 .ARM.extab     0x000644c0        0x0 vt3_code/vt3_POU__iocore_data.obj
 .ARM.extab     0x000644c0        0x0 vt3_code/vt3_POU__global_data.obj
 .ARM.extab     0x000644c0        0x0 vt3_code/vt3_POU__setup_data.obj
 .ARM.extab     0x000644c0        0x0 vt3_code/vt3_POU__splash_data.obj
 .ARM.extab     0x000644c0        0x0 vt3_code/vt3_POU__home_data.obj
 .ARM.extab     0x000644c0        0xc vt3_code/vt3_POU__PLC_PRG.obj
 .ARM.extab     0x000644cc        0xc vt3_code/vt3_POU__assignIO.obj
 .ARM.extab     0x000644d8       0x18 vt3_code/vt3_POU__doBrightness.obj
 .ARM.extab     0x000644f0        0xc vt3_code/vt3_POU__usbUpdate.obj
 .ARM.extab     0x000644fc        0xc vt3_code/vt3_POU__outputs.obj
 .ARM.extab     0x00064508        0xc vt3_code/vt3_POU__task100.obj
 .ARM.extab     0x00064514        0xc vt3_code/vt3_POU__slaveConfig.obj
 .ARM.extab     0x00064520        0xc vt3_code/vt3_POU__slaveConfigFB_CPU0.obj
 .ARM.extab     0x0006452c        0xc vt3_code/vt3_POU__slaveConfigFB_CPU1.obj
 .ARM.extab     0x00064538        0x0 vt3_code/vt3_POU__interpol.obj
 .ARM.extab     0x00064538        0x0 vt3_code/vt3_POU_common.obj
 .ARM.extab     0x00064538        0x0 vt3_code/vt3_init_persistent_p_array.obj
 .ARM.extab     0x00064538        0x0 vt3_code/vt3_init_persistent_r_array.obj
 .ARM.extab     0x00064538        0x0 vt3_code/vt3_init_persistent_f_array.obj
 .ARM.extab     0x00064538        0xc vt3_code/vt3_CAN__CanInterface.obj
 .ARM.extab     0x00064544        0x0 vt3_code/vt3_CAN_common.obj
 .ARM.extab     0x00064544        0x0 vt3_code/vt3_disp_events.obj
 .ARM.extab     0x00064544        0x0 vt3_code/vt3_disp.obj
 .ARM.extab     0x00064544        0x0 vt3_code/vt3_slaves.obj
 .ARM.extab     0x00064544        0x0 C:/Users/hurdj00/Desktop/HARTST~1.1/code/Tera_7/__OBJE~1/vt3_POU__BYTE_TO_ASCII.obj
 .ARM.extab     0x00064544        0x0 C:/Users/hurdj00/Desktop/HARTST~1.1/code/Tera_7/__OBJE~1/vt3_POU__check_touchcalibration.obj
 .ARM.extab     0x00064544        0xc C:/Users/hurdj00/Desktop/HARTST~1.1/code/Tera_7/__OBJE~1/vt3_POU__GET_POWER_FAIL.obj
 .ARM.extab     0x00064550        0x0 C:/Users/hurdj00/Desktop/HARTST~1.1/code/Tera_7/__OBJE~1/vt3_POU__get_prj_version.obj
 .ARM.extab     0x00064550        0xc C:/Users/hurdj00/Desktop/HARTST~1.1/code/Tera_7/__OBJE~1/vt3_POU__get_prj_version_byte.obj
 .ARM.extab     0x0006455c        0xc C:/Users/hurdj00/Desktop/HARTST~1.1/code/Tera_7/__OBJE~1/vt3_POU__INIT_BYTEARRAY_P.obj
 .ARM.extab     0x00064568        0xc C:/Users/hurdj00/Desktop/HARTST~1.1/code/Tera_7/__OBJE~1/vt3_POU__INIT_BYTEARRAY_R.obj
 .ARM.extab     0x00064574        0xc C:/Users/hurdj00/Desktop/HARTST~1.1/code/Tera_7/__OBJE~1/vt3_POU__INIT_SD_USB.obj
 .ARM.extab     0x00064580        0xc C:/Users/hurdj00/Desktop/HARTST~1.1/code/Tera_7/__OBJE~1/vt3_POU__lcdSetBlank.obj
 .ARM.extab     0x0006458c        0xc C:/Users/hurdj00/Desktop/HARTST~1.1/code/Tera_7/__OBJE~1/vt3_POU__mountSD.obj
 .ARM.extab     0x00064598        0xc C:/Users/hurdj00/Desktop/HARTST~1.1/code/Tera_7/__OBJE~1/vt3_POU__mountUSB.obj
 .ARM.extab     0x000645a4        0xc C:/Users/hurdj00/Desktop/HARTST~1.1/code/Tera_7/__OBJE~1/vt3_POU__REBOOT.obj
 .ARM.extab     0x000645b0        0x0 C:/Users/hurdj00/Desktop/HARTST~1.1/code/Tera_7/__OBJE~1/vt3_POU__req_touchcalibration.obj
 .ARM.extab     0x000645b0        0xc C:/Users/hurdj00/Desktop/HARTST~1.1/code/Tera_7/__OBJE~1/vt3_POU__SET_POWER_FAIL_SHUTDOWN.obj
 .ARM.extab     0x000645bc        0xc C:/Users/hurdj00/Desktop/HARTST~1.1/code/Tera_7/__OBJE~1/vt3_POU__SHUTDOWN.obj
 .ARM.extab     0x000645c8        0x0 C:/Users/hurdj00/Desktop/HARTST~1.1/code/Tera_7/__OBJE~1/vt3_POU__ST_TRANSLATE.obj
 .ARM.extab     0x000645c8        0xc C:/Users/hurdj00/Desktop/HARTST~1.1/code/Tera_7/__OBJE~1/vt3_POU__umountSD.obj
 .ARM.extab     0x000645d4        0xc C:/Users/hurdj00/Desktop/HARTST~1.1/code/Tera_7/__OBJE~1/vt3_POU__umountUSB.obj
 .ARM.extab     0x000645e0        0x0 C:/Users/hurdj00/Desktop/HARTST~1.1/code/Tera_7/__OBJE~1/vt3_POU__WRITE_EL.obj
 .ARM.extab     0x000645e0        0x0 C:/Users/hurdj00/Desktop/HARTST~1.1/code/Tera_7/__OBJE~1/vt3_POU__WRITE_EL_PRIVATE.obj
 .ARM.extab     0x000645e0        0xc C:/Users/hurdj00/Desktop/HARTST~1.1/code/Tera_7/__OBJE~1/vt3_POU__WRITE_EL_TO_SD.obj
 .ARM.extab     0x000645ec        0xc C:/Users/hurdj00/Desktop/HARTST~1.1/code/Tera_7/__OBJE~1/vt3_POU__WRITE_EL_TO_USB.obj
 .ARM.extab     0x000645f8        0x0 c:/progra~2/codeso~1/source~1/bin/../lib/gcc/arm-none-linux-gnueabi/4.4.1\libgcc.a(_fixsfdi.o)
 .ARM.extab     0x000645f8        0x0 c:/progra~2/codeso~1/source~1/bin/../lib/gcc/arm-none-linux-gnueabi/4.4.1\libgcc.a(_fixdfdi.o)
 .ARM.extab     0x000645f8        0x0 c:/progra~2/codeso~1/source~1/bin/../lib/gcc/arm-none-linux-gnueabi/4.4.1\libgcc.a(_fixunssfdi.o)
 .ARM.extab     0x000645f8        0x0 c:/progra~2/codeso~1/source~1/bin/../lib/gcc/arm-none-linux-gnueabi/4.4.1\libgcc.a(_fixunsdfdi.o)
 .ARM.extab     0x000645f8        0x0 c:/progra~2/codeso~1/source~1/bin/../lib/gcc/arm-none-linux-gnueabi/4.4.1\libgcc.a(bpabi.o)
 .ARM.extab     0x000645f8        0x0 c:/progra~2/codeso~1/source~1/bin/../lib/gcc/arm-none-linux-gnueabi/4.4.1\libgcc.a(_divdi3.o)
 .ARM.extab     0x000645f8        0x0 c:/progra~2/codeso~1/source~1/bin/../lib/gcc/arm-none-linux-gnueabi/4.4.1\libgcc.a(_udivdi3.o)
 .ARM.extab     0x000645f8        0x0 c:\progra~2\codeso~1\source~1\bin\../arm-none-linux-gnueabi/libc/usr/lib/libc_nonshared.a(elf-init.oS)
                0x000645f8                PROVIDE (__exidx_start, .)

.ARM.exidx      0x000645f8     0x15e0
 *(.ARM.exidx* .gnu.linkonce.armexidx.*)
 .ARM.exidx     0x000645f8        0x8 c:/progra~2/codeso~1/source~1/bin/../arm-none-linux-gnueabi/libc/usr/lib/crt1.o
 .ARM.exidx     0x00064600       0x10 c:/progra~2/codeso~1/source~1/bin/../lib/gcc/arm-none-linux-gnueabi/4.4.1/crtbegin.o
 .ARM.exidx     0x00064610        0x8 C:\Program Files (x86)\VT3\resources\targets\TERA7\lib//vt3_runtime/harfbuzz_fribidi_wrapper_empty.o
                                 0x18 (size before relaxing)
 .ARM.exidx     0x00064618       0x98 C:\Program Files (x86)\VT3\resources\targets\TERA7\lib/\vt3_runtime\libvt3_runtime.a(vt3_main.obj)
                                 0xf0 (size before relaxing)
 .ARM.exidx     0x000646b0       0x58 C:\Program Files (x86)\VT3\resources\targets\TERA7\lib/\vt3_runtime\libvt3_runtime.a(vt3_pdf.obj)
 .ARM.exidx     0x00064708       0x40 C:\Program Files (x86)\VT3\resources\targets\TERA7\lib/\vt3_runtime\libvt3_runtime.a(vt3_slaves.obj)
 .ARM.exidx     0x00064748        0x8 C:\Program Files (x86)\VT3\resources\targets\TERA7\lib/\vt3_runtime\libvt3_runtime.a(vt3_stats.obj)
 .ARM.exidx     0x00064750       0x78 C:\Program Files (x86)\VT3\resources\targets\TERA7\lib/\vt3_runtime\libvt3_runtime.a(vt3_task.obj)
 .ARM.exidx     0x000647c8       0x30 C:\Program Files (x86)\VT3\resources\targets\TERA7\lib/\vt3_runtime\libvt3_runtime.a(vt3_trend.obj)
                                 0x48 (size before relaxing)
 .ARM.exidx     0x000647f8       0x18 C:\Program Files (x86)\VT3\resources\targets\TERA7\lib/\vt3_runtime\libvt3_runtime.a(akima_interpolator.obj)
 .ARM.exidx     0x00064810      0x9e0 C:\Program Files (x86)\VT3\resources\targets\TERA7\lib/\vt3_runtime\libvt3_runtime.a(ieclib.obj)
                                0xf58 (size before relaxing)
 .ARM.exidx     0x000651f0      0x170 C:\Program Files (x86)\VT3\resources\targets\TERA7\lib/\vt3_runtime\libvt3_runtime.a(lcd_dfb.obj)
                                0x1a0 (size before relaxing)
 .ARM.exidx     0x00065360      0x1c8 C:\Program Files (x86)\VT3\resources\targets\TERA7\lib/\vt3_runtime\libvt3_runtime.a(vt3_canlib.obj)
                                0x2d0 (size before relaxing)
 .ARM.exidx     0x00065528       0x40 C:\Program Files (x86)\VT3\resources\targets\TERA7\lib/\vt3_runtime\libvt3_runtime.a(vt3_canlib_testable.obj)
 .ARM.exidx     0x00065568      0x100 C:\Program Files (x86)\VT3\resources\targets\TERA7\lib/\vt3_runtime\libvt3_runtime.a(vt3_elog.obj)
                                0x190 (size before relaxing)
 .ARM.exidx     0x00065668       0xf8 C:\Program Files (x86)\VT3\resources\targets\TERA7\lib/\vt3_runtime\libvt3_runtime.a(vt3_lcd_3b6.obj)
                                0x110 (size before relaxing)
 .ARM.exidx     0x00065760      0x1a0 C:\Program Files (x86)\VT3\resources\targets\TERA7\lib/\vt3_runtime\libvt3_runtime.a(vt3_lcd_tl.obj)
                                0x268 (size before relaxing)
 .ARM.exidx     0x00065900       0x20 C:\Program Files (x86)\VT3\resources\targets\TERA7\lib/\vt3_runtime\libvt3_runtime.a(vt3_lcd_tl_testable.obj)
 .ARM.exidx     0x00065920        0x8 vt3_code/vt3_lang.obj
 .ARM.exidx     0x00065928        0x8 vt3_code/vt3_fonts.obj
 .ARM.exidx     0x00065930        0x8 vt3_code/vt3_IO.obj
                                 0x10 (size before relaxing)
 .ARM.exidx     0x00065938        0x0 vt3_code/vt3_POU__iocore_data.obj
                                  0x8 (size before relaxing)
 .ARM.exidx     0x00065938        0x0 vt3_code/vt3_POU__global_data.obj
                                  0x8 (size before relaxing)
 .ARM.exidx     0x00065938        0x0 vt3_code/vt3_POU__setup_data.obj
                                  0x8 (size before relaxing)
 .ARM.exidx     0x00065938        0x0 vt3_code/vt3_POU__splash_data.obj
                                  0x8 (size before relaxing)
 .ARM.exidx     0x00065938        0x0 vt3_code/vt3_POU__home_data.obj
                                  0x8 (size before relaxing)
 .ARM.exidx     0x00065938       0x10 vt3_code/vt3_POU__PLC_PRG.obj
 .ARM.exidx     0x00065948       0x10 vt3_code/vt3_POU__assignIO.obj
 .ARM.exidx     0x00065958       0x10 vt3_code/vt3_POU__doBrightness.obj
 .ARM.exidx     0x00065968       0x10 vt3_code/vt3_POU__usbUpdate.obj
 .ARM.exidx     0x00065978       0x10 vt3_code/vt3_POU__outputs.obj
 .ARM.exidx     0x00065988       0x10 vt3_code/vt3_POU__task100.obj
 .ARM.exidx     0x00065998       0x10 vt3_code/vt3_POU__slaveConfig.obj
 .ARM.exidx     0x000659a8       0x10 vt3_code/vt3_POU__slaveConfigFB_CPU0.obj
 .ARM.exidx     0x000659b8       0x10 vt3_code/vt3_POU__slaveConfigFB_CPU1.obj
 .ARM.exidx     0x000659c8        0x8 vt3_code/vt3_POU__interpol.obj
 .ARM.exidx     0x000659d0        0x8 vt3_code/vt3_POU_common.obj
                                 0x18 (size before relaxing)
 .ARM.exidx     0x000659d8        0x0 vt3_code/vt3_init_persistent_p_array.obj
                                  0x8 (size before relaxing)
 .ARM.exidx     0x000659d8        0x8 vt3_code/vt3_init_persistent_r_array.obj
 .ARM.exidx     0x000659e0        0x0 vt3_code/vt3_init_persistent_f_array.obj
                                  0x8 (size before relaxing)
 .ARM.exidx     0x000659e0       0x20 vt3_code/vt3_CAN__CanInterface.obj
                                 0x80 (size before relaxing)
 .ARM.exidx     0x00065a00        0x8 vt3_code/vt3_CAN_common.obj
                                 0x18 (size before relaxing)
 .ARM.exidx     0x00065a08       0x28 vt3_code/vt3_disp_events.obj
                                0x2e8 (size before relaxing)
 .ARM.exidx     0x00065a30       0x40 vt3_code/vt3_disp.obj
                                 0x80 (size before relaxing)
 .ARM.exidx     0x00065a70        0x8 vt3_code/vt3_slaves.obj
 .ARM.exidx     0x00065a78        0x8 C:/Users/hurdj00/Desktop/HARTST~1.1/code/Tera_7/__OBJE~1/vt3_POU__BYTE_TO_ASCII.obj
                                 0x10 (size before relaxing)
 .ARM.exidx     0x00065a80        0x8 C:/Users/hurdj00/Desktop/HARTST~1.1/code/Tera_7/__OBJE~1/vt3_POU__check_touchcalibration.obj
 .ARM.exidx     0x00065a88       0x10 C:/Users/hurdj00/Desktop/HARTST~1.1/code/Tera_7/__OBJE~1/vt3_POU__GET_POWER_FAIL.obj
 .ARM.exidx     0x00065a98       0x10 C:/Users/hurdj00/Desktop/HARTST~1.1/code/Tera_7/__OBJE~1/vt3_POU__get_prj_version.obj
 .ARM.exidx     0x00065aa8       0x10 C:/Users/hurdj00/Desktop/HARTST~1.1/code/Tera_7/__OBJE~1/vt3_POU__get_prj_version_byte.obj
 .ARM.exidx     0x00065ab8       0x10 C:/Users/hurdj00/Desktop/HARTST~1.1/code/Tera_7/__OBJE~1/vt3_POU__INIT_BYTEARRAY_P.obj
 .ARM.exidx     0x00065ac8       0x10 C:/Users/hurdj00/Desktop/HARTST~1.1/code/Tera_7/__OBJE~1/vt3_POU__INIT_BYTEARRAY_R.obj
 .ARM.exidx     0x00065ad8       0x10 C:/Users/hurdj00/Desktop/HARTST~1.1/code/Tera_7/__OBJE~1/vt3_POU__INIT_SD_USB.obj
 .ARM.exidx     0x00065ae8       0x10 C:/Users/hurdj00/Desktop/HARTST~1.1/code/Tera_7/__OBJE~1/vt3_POU__lcdSetBlank.obj
 .ARM.exidx     0x00065af8        0x8 C:/Users/hurdj00/Desktop/HARTST~1.1/code/Tera_7/__OBJE~1/vt3_POU__mountSD.obj
 .ARM.exidx     0x00065b00        0x8 C:/Users/hurdj00/Desktop/HARTST~1.1/code/Tera_7/__OBJE~1/vt3_POU__mountUSB.obj
 .ARM.exidx     0x00065b08       0x10 C:/Users/hurdj00/Desktop/HARTST~1.1/code/Tera_7/__OBJE~1/vt3_POU__REBOOT.obj
 .ARM.exidx     0x00065b18        0x8 C:/Users/hurdj00/Desktop/HARTST~1.1/code/Tera_7/__OBJE~1/vt3_POU__req_touchcalibration.obj
 .ARM.exidx     0x00065b20       0x10 C:/Users/hurdj00/Desktop/HARTST~1.1/code/Tera_7/__OBJE~1/vt3_POU__SET_POWER_FAIL_SHUTDOWN.obj
 .ARM.exidx     0x00065b30       0x10 C:/Users/hurdj00/Desktop/HARTST~1.1/code/Tera_7/__OBJE~1/vt3_POU__SHUTDOWN.obj
 .ARM.exidx     0x00065b40        0x8 C:/Users/hurdj00/Desktop/HARTST~1.1/code/Tera_7/__OBJE~1/vt3_POU__ST_TRANSLATE.obj
 .ARM.exidx     0x00065b48        0x8 C:/Users/hurdj00/Desktop/HARTST~1.1/code/Tera_7/__OBJE~1/vt3_POU__umountSD.obj
 .ARM.exidx     0x00065b50        0x8 C:/Users/hurdj00/Desktop/HARTST~1.1/code/Tera_7/__OBJE~1/vt3_POU__umountUSB.obj
 .ARM.exidx     0x00065b58        0x8 C:/Users/hurdj00/Desktop/HARTST~1.1/code/Tera_7/__OBJE~1/vt3_POU__WRITE_EL.obj
 .ARM.exidx     0x00065b60        0x8 C:/Users/hurdj00/Desktop/HARTST~1.1/code/Tera_7/__OBJE~1/vt3_POU__WRITE_EL_PRIVATE.obj
 .ARM.exidx     0x00065b68       0x10 C:/Users/hurdj00/Desktop/HARTST~1.1/code/Tera_7/__OBJE~1/vt3_POU__WRITE_EL_TO_SD.obj
 .ARM.exidx     0x00065b78       0x18 C:/Users/hurdj00/Desktop/HARTST~1.1/code/Tera_7/__OBJE~1/vt3_POU__WRITE_EL_TO_USB.obj
                                 0x10 (size before relaxing)
 .ARM.exidx     0x00065b90        0x8 c:/progra~2/codeso~1/source~1/bin/../lib/gcc/arm-none-linux-gnueabi/4.4.1\libgcc.a(_fixsfdi.o)
 .ARM.exidx     0x00065b98        0x8 c:/progra~2/codeso~1/source~1/bin/../lib/gcc/arm-none-linux-gnueabi/4.4.1\libgcc.a(_fixdfdi.o)
 .ARM.exidx     0x00065ba0        0x8 c:/progra~2/codeso~1/source~1/bin/../lib/gcc/arm-none-linux-gnueabi/4.4.1\libgcc.a(_fixunssfdi.o)
 .ARM.exidx     0x00065ba8        0x0 c:/progra~2/codeso~1/source~1/bin/../lib/gcc/arm-none-linux-gnueabi/4.4.1\libgcc.a(_fixunsdfdi.o)
                                  0x8 (size before relaxing)
 .ARM.exidx     0x00065ba8        0x8 c:/progra~2/codeso~1/source~1/bin/../lib/gcc/arm-none-linux-gnueabi/4.4.1\libgcc.a(bpabi.o)
                                 0x10 (size before relaxing)
 .ARM.exidx     0x00065bb0        0x8 c:/progra~2/codeso~1/source~1/bin/../lib/gcc/arm-none-linux-gnueabi/4.4.1\libgcc.a(_divdi3.o)
 .ARM.exidx     0x00065bb8        0x8 c:/progra~2/codeso~1/source~1/bin/../lib/gcc/arm-none-linux-gnueabi/4.4.1\libgcc.a(_udivdi3.o)
 .ARM.exidx     0x00065bc0       0x18 c:\progra~2\codeso~1\source~1\bin\../arm-none-linux-gnueabi/libc/usr/lib/libc_nonshared.a(elf-init.oS)
                                 0x10 (size before relaxing)
                0x00065bd8                PROVIDE (__exidx_end, .)

.eh_frame_hdr
 *(.eh_frame_hdr)

.eh_frame
 *(.eh_frame)

.gcc_except_table
 *(.gcc_except_table .gcc_except_table.*)
                0x00065bd8                . = (ALIGN (0x8000) - ((0x8000 - .) & 0x7fff))
                0x0006e000                . = (0x8000 DATA_SEGMENT_ALIGN 0x1000)

.eh_frame
 *(.eh_frame)

.gcc_except_table
 *(.gcc_except_table .gcc_except_table.*)

.tdata          0x0006e000        0x4
 *(.tdata .tdata.* .gnu.linkonce.td.*)
 .tdata         0x0006e000        0x4 C:\Program Files (x86)\VT3\resources\targets\TERA7\lib/\vt3_runtime\libvt3_runtime.a(ieclib.obj)

.tbss           0x0006e004        0x4
 *(.tbss .tbss.* .gnu.linkonce.tb.*)
 .tbss          0x0006e004        0x4 C:\Program Files (x86)\VT3\resources\targets\TERA7\lib/\vt3_runtime\libvt3_runtime.a(ieclib.obj)
 *(.tcommon)

.preinit_array  0x0006e004        0x0
                0x0006e004                PROVIDE (__preinit_array_start, .)
 *(.preinit_array)
                0x0006e004                PROVIDE (__preinit_array_end, .)

.init_array     0x0006e004        0x4
                0x0006e004                PROVIDE (__init_array_start, .)
 *(SORT(.init_array.*))
 *(.init_array)
 .init_array    0x0006e004        0x4 c:/progra~2/codeso~1/source~1/bin/../lib/gcc/arm-none-linux-gnueabi/4.4.1/crtbegin.o
                0x0006e008                PROVIDE (__init_array_end, .)

.fini_array     0x0006e008        0x4
                0x0006e008                PROVIDE (__fini_array_start, .)
 *(SORT(.fini_array.*))
 *(.fini_array)
 .fini_array    0x0006e008        0x4 c:/progra~2/codeso~1/source~1/bin/../lib/gcc/arm-none-linux-gnueabi/4.4.1/crtbegin.o
                0x0006e00c                PROVIDE (__fini_array_end, .)

.ctors
 *crtbegin.o(.ctors)
 *crtbegin?.o(.ctors)
 *(EXCLUDE_FILE(*crtend?.o *crtend.o) .ctors)
 *(SORT(.ctors.*))
 *(.ctors)

.dtors
 *crtbegin.o(.dtors)
 *crtbegin?.o(.dtors)
 *(EXCLUDE_FILE(*crtend?.o *crtend.o) .dtors)
 *(SORT(.dtors.*))
 *(.dtors)

.jcr            0x0006e00c        0x4
 *(.jcr)
 .jcr           0x0006e00c        0x0 c:/progra~2/codeso~1/source~1/bin/../lib/gcc/arm-none-linux-gnueabi/4.4.1/crtbegin.o
 .jcr           0x0006e00c        0x4 c:/progra~2/codeso~1/source~1/bin/../lib/gcc/arm-none-linux-gnueabi/4.4.1/crtend.o

.data.rel.ro
 *(.data.rel.ro.local* .gnu.linkonce.d.rel.ro.local.*)
 *(.data.rel.ro* .gnu.linkonce.d.rel.ro.*)

.dynamic        0x0006e010      0x130
 *(.dynamic)
 .dynamic       0x0006e010      0x130 c:/progra~2/codeso~1/source~1/bin/../arm-none-linux-gnueabi/libc/usr/lib/crti.o
                0x0006e010                _DYNAMIC
                0x0006e140                . = (. DATA_SEGMENT_RELRO_END 0x0)

.got            0x0006e140      0x1f8
 *(.got.plt)
 .got.plt       0x0006e140      0x1f4 c:/progra~2/codeso~1/source~1/bin/../arm-none-linux-gnueabi/libc/usr/lib/crti.o
                0x0006e140                _GLOBAL_OFFSET_TABLE_
 *(.igot.plt)
 *(.got)
 .got           0x0006e334        0x4 c:/progra~2/codeso~1/source~1/bin/../arm-none-linux-gnueabi/libc/usr/lib/crti.o
 *(.igot)

.data           0x0006e338      0x3e2
                0x0006e338                __data_start = .
 *(.data .data.* .gnu.linkonce.d.*)
 .data          0x0006e338        0x4 c:/progra~2/codeso~1/source~1/bin/../arm-none-linux-gnueabi/libc/usr/lib/crt1.o
                0x0006e338                data_start
 .data          0x0006e33c        0x0 c:/progra~2/codeso~1/source~1/bin/../arm-none-linux-gnueabi/libc/usr/lib/crti.o
 .data          0x0006e33c        0x4 c:/progra~2/codeso~1/source~1/bin/../lib/gcc/arm-none-linux-gnueabi/4.4.1/crtbegin.o
                0x0006e33c                __dso_handle
 .data          0x0006e340        0x0 C:\Program Files (x86)\VT3\resources\targets\TERA7\lib//vt3_runtime/harfbuzz_fribidi_wrapper_empty.o
 .data          0x0006e340       0x10 C:\Program Files (x86)\VT3\resources\targets\TERA7\lib/\vt3_runtime\libvt3_runtime.a(vt3_main.obj)
                0x0006e34d                vt3_key_buzzer_setting
 .data          0x0006e350       0x18 C:\Program Files (x86)\VT3\resources\targets\TERA7\lib/\vt3_runtime\libvt3_runtime.a(vt3_pdf.obj)
 .data          0x0006e368        0x0 C:\Program Files (x86)\VT3\resources\targets\TERA7\lib/\vt3_runtime\libvt3_runtime.a(vt3_slaves.obj)
 .data          0x0006e368        0x0 C:\Program Files (x86)\VT3\resources\targets\TERA7\lib/\vt3_runtime\libvt3_runtime.a(vt3_stats.obj)
 .data          0x0006e368        0x0 C:\Program Files (x86)\VT3\resources\targets\TERA7\lib/\vt3_runtime\libvt3_runtime.a(vt3_task.obj)
 .data          0x0006e368        0x0 C:\Program Files (x86)\VT3\resources\targets\TERA7\lib/\vt3_runtime\libvt3_runtime.a(vt3_trend.obj)
 .data          0x0006e368        0x0 C:\Program Files (x86)\VT3\resources\targets\TERA7\lib/\vt3_runtime\libvt3_runtime.a(akima_interpolator.obj)
 .data          0x0006e368        0x0 C:\Program Files (x86)\VT3\resources\targets\TERA7\lib/\vt3_runtime\libvt3_runtime.a(ieclib.obj)
 .data          0x0006e368      0x240 C:\Program Files (x86)\VT3\resources\targets\TERA7\lib/\vt3_runtime\libvt3_runtime.a(lcd_dfb.obj)
 .data          0x0006e5a8        0xc C:\Program Files (x86)\VT3\resources\targets\TERA7\lib/\vt3_runtime\libvt3_runtime.a(vt3_canlib.obj)
 .data          0x0006e5b4        0x1 C:\Program Files (x86)\VT3\resources\targets\TERA7\lib/\vt3_runtime\libvt3_runtime.a(vt3_canlib_testable.obj)
 .data          0x0006e5b5        0x0 C:\Program Files (x86)\VT3\resources\targets\TERA7\lib/\vt3_runtime\libvt3_runtime.a(vt3_elog.obj)
 *fill*         0x0006e5b5        0x3 00
 .data          0x0006e5b8       0xa8 C:\Program Files (x86)\VT3\resources\targets\TERA7\lib/\vt3_runtime\libvt3_runtime.a(vt3_lcd_3b6.obj)
 .data          0x0006e660        0x8 C:\Program Files (x86)\VT3\resources\targets\TERA7\lib/\vt3_runtime\libvt3_runtime.a(vt3_lcd_tl.obj)
 .data          0x0006e668        0x0 C:\Program Files (x86)\VT3\resources\targets\TERA7\lib/\vt3_runtime\libvt3_runtime.a(vt3_lcd_tl_testable.obj)
 .data          0x0006e668        0x0 vt3_code/vt3_lang.obj
 .data          0x0006e668       0x54 vt3_code/vt3_fonts.obj
                0x0006e668                vt3_font_descriptor_ArialBold18
                0x0006e684                vt3_font_descriptor_ArialBold20
                0x0006e6a0                vt3_font_descriptor_ArialBold22
 .data          0x0006e6bc        0x0 vt3_code/vt3_IO.obj
 .data          0x0006e6bc       0x10 vt3_code/vt3_alarms.obj
                0x0006e6bc                _IDS_ALARM_QUICK_SET
                0x0006e6be                _IDS_ALARM_QUICK_RTN
                0x0006e6c0                _IDS_ALARM_QUICK_ACK
                0x0006e6c2                _IDS_ALARM_LOG_NORMAL
                0x0006e6c4                _IDS_ALARM_LOG_SET_NACK
                0x0006e6c6                _IDS_ALARM_LOG_RTN_NACK
                0x0006e6c8                _IDS_ALARM_LOG_SET_ACK
                0x0006e6ca                _IDS_ALARM_LOG_CRC_ERROR
 .data          0x0006e6cc        0x0 vt3_code/vt3_POU__iocore_data.obj
 .data          0x0006e6cc        0x0 vt3_code/vt3_POU__global_data.obj
 .data          0x0006e6cc        0x0 vt3_code/vt3_POU__setup_data.obj
 .data          0x0006e6cc        0x0 vt3_code/vt3_POU__splash_data.obj
 .data          0x0006e6cc        0x0 vt3_code/vt3_POU__home_data.obj
 .data          0x0006e6cc        0x0 vt3_code/vt3_POU__PLC_PRG.obj
 .data          0x0006e6cc        0x0 vt3_code/vt3_POU__assignIO.obj
 .data          0x0006e6cc        0x0 vt3_code/vt3_POU__doBrightness.obj
 .data          0x0006e6cc        0x0 vt3_code/vt3_POU__usbUpdate.obj
 .data          0x0006e6cc        0x0 vt3_code/vt3_POU__outputs.obj
 .data          0x0006e6cc        0x0 vt3_code/vt3_POU__task100.obj
 .data          0x0006e6cc        0x0 vt3_code/vt3_POU__slaveConfig.obj
 .data          0x0006e6cc        0x0 vt3_code/vt3_POU__slaveConfigFB_CPU0.obj
 .data          0x0006e6cc        0x0 vt3_code/vt3_POU__slaveConfigFB_CPU1.obj
 .data          0x0006e6cc        0x0 vt3_code/vt3_POU__interpol.obj
 .data          0x0006e6cc        0x0 vt3_code/vt3_POU_common.obj
 .data          0x0006e6cc        0x0 vt3_code/vt3_vars.obj
 .data          0x0006e6cc        0x0 vt3_code/vt3_var_version.obj
 .data          0x0006e6cc        0x0 vt3_code/vt3_init_persistent_p_array.obj
 .data          0x0006e6cc        0x0 vt3_code/vt3_init_persistent_r_array.obj
 .data          0x0006e6cc        0x0 vt3_code/vt3_init_persistent_f_array.obj
 .data          0x0006e6cc        0x0 vt3_code/vt3_CAN__CanInterface.obj
 .data          0x0006e6cc       0x4c vt3_code/vt3_CAN_common.obj
                0x0006e6cc                j1939_MultiPacket
                0x0006e6dc                vt3_tx_cobid_list
                0x0006e6e8                vt3_rx_cobid_list
 .data          0x0006e718        0x0 vt3_code/vt3_signature.obj
 .data          0x0006e718        0x0 vt3_code/vt3_disp_events.obj
 .data          0x0006e718        0x0 vt3_code/vt3_images.obj
 .data          0x0006e718        0x2 vt3_code/vt3_disp.obj
                0x0006e718                vt3_current_screen
 .data          0x0006e71a        0x0 vt3_code/vt3_slaves.obj
 .data          0x0006e71a        0x0 extra/vt3_extra.obj
 .data          0x0006e71a        0x0 C:/Users/hurdj00/Desktop/HARTST~1.1/code/Tera_7/__OBJE~1/vt3_extra.obj
 .data          0x0006e71a        0x0 C:/Users/hurdj00/Desktop/HARTST~1.1/code/Tera_7/__OBJE~1/vt3_POU__ARR_BYTE_version.obj
 .data          0x0006e71a        0x0 C:/Users/hurdj00/Desktop/HARTST~1.1/code/Tera_7/__OBJE~1/vt3_POU__BYTE_TO_ASCII.obj
 .data          0x0006e71a        0x0 C:/Users/hurdj00/Desktop/HARTST~1.1/code/Tera_7/__OBJE~1/vt3_POU__check_touchcalibration.obj
 .data          0x0006e71a        0x0 C:/Users/hurdj00/Desktop/HARTST~1.1/code/Tera_7/__OBJE~1/vt3_POU__GET_POWER_FAIL.obj
 .data          0x0006e71a        0x0 C:/Users/hurdj00/Desktop/HARTST~1.1/code/Tera_7/__OBJE~1/vt3_POU__get_prj_version.obj
 .data          0x0006e71a        0x0 C:/Users/hurdj00/Desktop/HARTST~1.1/code/Tera_7/__OBJE~1/vt3_POU__get_prj_version_byte.obj
 .data          0x0006e71a        0x0 C:/Users/hurdj00/Desktop/HARTST~1.1/code/Tera_7/__OBJE~1/vt3_POU__INIT_BYTEARRAY_P.obj
 .data          0x0006e71a        0x0 C:/Users/hurdj00/Desktop/HARTST~1.1/code/Tera_7/__OBJE~1/vt3_POU__INIT_BYTEARRAY_R.obj
 .data          0x0006e71a        0x0 C:/Users/hurdj00/Desktop/HARTST~1.1/code/Tera_7/__OBJE~1/vt3_POU__INIT_SD_USB.obj
 .data          0x0006e71a        0x0 C:/Users/hurdj00/Desktop/HARTST~1.1/code/Tera_7/__OBJE~1/vt3_POU__lcdSetBlank.obj
 .data          0x0006e71a        0x0 C:/Users/hurdj00/Desktop/HARTST~1.1/code/Tera_7/__OBJE~1/vt3_POU__mountSD.obj
 .data          0x0006e71a        0x0 C:/Users/hurdj00/Desktop/HARTST~1.1/code/Tera_7/__OBJE~1/vt3_POU__mountUSB.obj
 .data          0x0006e71a        0x0 C:/Users/hurdj00/Desktop/HARTST~1.1/code/Tera_7/__OBJE~1/vt3_POU__REBOOT.obj
 .data          0x0006e71a        0x0 C:/Users/hurdj00/Desktop/HARTST~1.1/code/Tera_7/__OBJE~1/vt3_POU__req_touchcalibration.obj
 .data          0x0006e71a        0x0 C:/Users/hurdj00/Desktop/HARTST~1.1/code/Tera_7/__OBJE~1/vt3_POU__SET_POWER_FAIL_SHUTDOWN.obj
 .data          0x0006e71a        0x0 C:/Users/hurdj00/Desktop/HARTST~1.1/code/Tera_7/__OBJE~1/vt3_POU__SHUTDOWN.obj
 .data          0x0006e71a        0x0 C:/Users/hurdj00/Desktop/HARTST~1.1/code/Tera_7/__OBJE~1/vt3_POU__ST_TRANSLATE.obj
 .data          0x0006e71a        0x0 C:/Users/hurdj00/Desktop/HARTST~1.1/code/Tera_7/__OBJE~1/vt3_POU__umountSD.obj
 .data          0x0006e71a        0x0 C:/Users/hurdj00/Desktop/HARTST~1.1/code/Tera_7/__OBJE~1/vt3_POU__umountUSB.obj
 .data          0x0006e71a        0x0 C:/Users/hurdj00/Desktop/HARTST~1.1/code/Tera_7/__OBJE~1/vt3_POU__WRITE_EL.obj
 .data          0x0006e71a        0x0 C:/Users/hurdj00/Desktop/HARTST~1.1/code/Tera_7/__OBJE~1/vt3_POU__WRITE_EL_ENUM.obj
 .data          0x0006e71a        0x0 C:/Users/hurdj00/Desktop/HARTST~1.1/code/Tera_7/__OBJE~1/vt3_POU__WRITE_EL_PRIVATE.obj
 .data          0x0006e71a        0x0 C:/Users/hurdj00/Desktop/HARTST~1.1/code/Tera_7/__OBJE~1/vt3_POU__WRITE_EL_TO_SD.obj
 .data          0x0006e71a        0x0 C:/Users/hurdj00/Desktop/HARTST~1.1/code/Tera_7/__OBJE~1/vt3_POU__WRITE_EL_TO_USB.obj
 .data          0x0006e71a        0x0 c:/progra~2/codeso~1/source~1/bin/../lib/gcc/arm-none-linux-gnueabi/4.4.1\libgcc.a(_udivsi3.o)
 .data          0x0006e71a        0x0 c:/progra~2/codeso~1/source~1/bin/../lib/gcc/arm-none-linux-gnueabi/4.4.1\libgcc.a(_divsi3.o)
 .data          0x0006e71a        0x0 c:/progra~2/codeso~1/source~1/bin/../lib/gcc/arm-none-linux-gnueabi/4.4.1\libgcc.a(_arm_addsubdf3.o)
 .data          0x0006e71a        0x0 c:/progra~2/codeso~1/source~1/bin/../lib/gcc/arm-none-linux-gnueabi/4.4.1\libgcc.a(_arm_muldivdf3.o)
 .data          0x0006e71a        0x0 c:/progra~2/codeso~1/source~1/bin/../lib/gcc/arm-none-linux-gnueabi/4.4.1\libgcc.a(_arm_cmpdf2.o)
 .data          0x0006e71a        0x0 c:/progra~2/codeso~1/source~1/bin/../lib/gcc/arm-none-linux-gnueabi/4.4.1\libgcc.a(_arm_fixdfsi.o)
 .data          0x0006e71a        0x0 c:/progra~2/codeso~1/source~1/bin/../lib/gcc/arm-none-linux-gnueabi/4.4.1\libgcc.a(_arm_fixunsdfsi.o)
 .data          0x0006e71a        0x0 c:/progra~2/codeso~1/source~1/bin/../lib/gcc/arm-none-linux-gnueabi/4.4.1\libgcc.a(_arm_truncdfsf2.o)
 .data          0x0006e71a        0x0 c:/progra~2/codeso~1/source~1/bin/../lib/gcc/arm-none-linux-gnueabi/4.4.1\libgcc.a(_arm_addsubsf3.o)
 .data          0x0006e71a        0x0 c:/progra~2/codeso~1/source~1/bin/../lib/gcc/arm-none-linux-gnueabi/4.4.1\libgcc.a(_arm_muldivsf3.o)
 .data          0x0006e71a        0x0 c:/progra~2/codeso~1/source~1/bin/../lib/gcc/arm-none-linux-gnueabi/4.4.1\libgcc.a(_arm_cmpsf2.o)
 .data          0x0006e71a        0x0 c:/progra~2/codeso~1/source~1/bin/../lib/gcc/arm-none-linux-gnueabi/4.4.1\libgcc.a(_arm_fixsfsi.o)
 .data          0x0006e71a        0x0 c:/progra~2/codeso~1/source~1/bin/../lib/gcc/arm-none-linux-gnueabi/4.4.1\libgcc.a(_arm_fixunssfsi.o)
 .data          0x0006e71a        0x0 c:/progra~2/codeso~1/source~1/bin/../lib/gcc/arm-none-linux-gnueabi/4.4.1\libgcc.a(_aeabi_ldivmod.o)
 .data          0x0006e71a        0x0 c:/progra~2/codeso~1/source~1/bin/../lib/gcc/arm-none-linux-gnueabi/4.4.1\libgcc.a(_aeabi_uldivmod.o)
 .data          0x0006e71a        0x0 c:/progra~2/codeso~1/source~1/bin/../lib/gcc/arm-none-linux-gnueabi/4.4.1\libgcc.a(_dvmd_lnx.o)
 .data          0x0006e71a        0x0 c:/progra~2/codeso~1/source~1/bin/../lib/gcc/arm-none-linux-gnueabi/4.4.1\libgcc.a(_fixsfdi.o)
 .data          0x0006e71a        0x0 c:/progra~2/codeso~1/source~1/bin/../lib/gcc/arm-none-linux-gnueabi/4.4.1\libgcc.a(_fixdfdi.o)
 .data          0x0006e71a        0x0 c:/progra~2/codeso~1/source~1/bin/../lib/gcc/arm-none-linux-gnueabi/4.4.1\libgcc.a(_fixunssfdi.o)
 .data          0x0006e71a        0x0 c:/progra~2/codeso~1/source~1/bin/../lib/gcc/arm-none-linux-gnueabi/4.4.1\libgcc.a(_fixunsdfdi.o)
 .data          0x0006e71a        0x0 c:/progra~2/codeso~1/source~1/bin/../lib/gcc/arm-none-linux-gnueabi/4.4.1\libgcc.a(bpabi.o)
 .data          0x0006e71a        0x0 c:/progra~2/codeso~1/source~1/bin/../lib/gcc/arm-none-linux-gnueabi/4.4.1\libgcc.a(_divdi3.o)
 .data          0x0006e71a        0x0 c:/progra~2/codeso~1/source~1/bin/../lib/gcc/arm-none-linux-gnueabi/4.4.1\libgcc.a(_udivdi3.o)
 .data          0x0006e71a        0x0 c:\progra~2\codeso~1\source~1\bin\../arm-none-linux-gnueabi/libc/usr/lib/libc_nonshared.a(elf-init.oS)
 .data          0x0006e71a        0x0 c:\progra~2\codeso~1\source~1\bin\../arm-none-linux-gnueabi/libc/usr/lib/libc_nonshared.a(aeabi_read_tp.oS)
 .data          0x0006e71a        0x0 c:/progra~2/codeso~1/source~1/bin/../lib/gcc/arm-none-linux-gnueabi/4.4.1/crtend.o
 .data          0x0006e71a        0x0 c:/progra~2/codeso~1/source~1/bin/../arm-none-linux-gnueabi/libc/usr/lib/crtn.o

.data1
 *(.data1)
                0x0006e71a                _edata = .
                0x0006e71a                PROVIDE (edata, .)
                0x0006e71a                __bss_start = .
                0x0006e71a                __bss_start__ = .

.bss            0x0006e720    0x1bd1c
 *(.dynbss)
 .dynbss        0x0006e720        0xc c:/progra~2/codeso~1/source~1/bin/../arm-none-linux-gnueabi/libc/usr/lib/crti.o
                0x0006e720                stdout@@GLIBC_2.4
                0x0006e728                stderr@@GLIBC_2.4
 *(.bss .bss.* .gnu.linkonce.b.*)
 .bss           0x0006e72c        0x0 c:/progra~2/codeso~1/source~1/bin/../arm-none-linux-gnueabi/libc/usr/lib/crt1.o
 .bss           0x0006e72c        0x0 c:/progra~2/codeso~1/source~1/bin/../arm-none-linux-gnueabi/libc/usr/lib/crti.o
 .bss           0x0006e72c        0x1 c:/progra~2/codeso~1/source~1/bin/../lib/gcc/arm-none-linux-gnueabi/4.4.1/crtbegin.o
 .bss           0x0006e72d        0x0 C:\Program Files (x86)\VT3\resources\targets\TERA7\lib//vt3_runtime/harfbuzz_fribidi_wrapper_empty.o
 *fill*         0x0006e72d        0x3 00
 .bss           0x0006e730       0x3c C:\Program Files (x86)\VT3\resources\targets\TERA7\lib/\vt3_runtime\libvt3_runtime.a(vt3_main.obj)
                0x0006e730                usesBuzzerIntensitivity
                0x0006e731                enableExternalBuzzer
                0x0006e732                modExternalBuzzer
                0x0006e738                vt3_app_up_and_running
                0x0006e741                vt3_bytearray_R_mirror_block_good
                0x0006e742                vt3_bytearray_R_main_block_good
                0x0006e743                vt3_bytearray_P_mirror_block_good
                0x0006e744                vt3_bytearray_P_main_block_good
                0x0006e74c                vt3_buzzer_setting
                0x0006e750                vt3_knob_mutex
                0x0006e768                enable_debug
 .bss           0x0006e76c       0x44 C:\Program Files (x86)\VT3\resources\targets\TERA7\lib/\vt3_runtime\libvt3_runtime.a(vt3_pdf.obj)
 .bss           0x0006e7b0       0x7c C:\Program Files (x86)\VT3\resources\targets\TERA7\lib/\vt3_runtime\libvt3_runtime.a(vt3_slaves.obj)
                0x0006e828                vt3_slaves_reference
 .bss           0x0006e82c       0x4c C:\Program Files (x86)\VT3\resources\targets\TERA7\lib/\vt3_runtime\libvt3_runtime.a(vt3_stats.obj)
 .bss           0x0006e878        0x4 C:\Program Files (x86)\VT3\resources\targets\TERA7\lib/\vt3_runtime\libvt3_runtime.a(vt3_task.obj)
                0x0006e878                glb_num_task
 .bss           0x0006e87c        0x4 C:\Program Files (x86)\VT3\resources\targets\TERA7\lib/\vt3_runtime\libvt3_runtime.a(vt3_trend.obj)
                0x0006e87c                vt3_trend_reference
 .bss           0x0006e880        0x0 C:\Program Files (x86)\VT3\resources\targets\TERA7\lib/\vt3_runtime\libvt3_runtime.a(akima_interpolator.obj)
 .bss           0x0006e880       0x20 C:\Program Files (x86)\VT3\resources\targets\TERA7\lib/\vt3_runtime\libvt3_runtime.a(ieclib.obj)
                0x0006e884                vt3_on_error_counter_mutex
                0x0006e89c                vt3_IECLIB_reference
 .bss           0x0006e8a0       0x38 C:\Program Files (x86)\VT3\resources\targets\TERA7\lib/\vt3_runtime\libvt3_runtime.a(lcd_dfb.obj)
                0x0006e8bc                mouse_pressed
                0x0006e8c0                global_image_cache
                0x0006e8c8                vt3_tera_keys
 .bss           0x0006e8d8     0x3278 C:\Program Files (x86)\VT3\resources\targets\TERA7\lib/\vt3_runtime\libvt3_runtime.a(vt3_canlib.obj)
 .bss           0x00071b50     0x3f80 C:\Program Files (x86)\VT3\resources\targets\TERA7\lib/\vt3_runtime\libvt3_runtime.a(vt3_canlib_testable.obj)
 .bss           0x00075ad0      0x134 C:\Program Files (x86)\VT3\resources\targets\TERA7\lib/\vt3_runtime\libvt3_runtime.a(vt3_elog.obj)
 .bss           0x00075c04      0x20c C:\Program Files (x86)\VT3\resources\targets\TERA7\lib/\vt3_runtime\libvt3_runtime.a(vt3_lcd_3b6.obj)
                0x00075c0c                g_freeze_display
 .bss           0x00075e10       0x3c C:\Program Files (x86)\VT3\resources\targets\TERA7\lib/\vt3_runtime\libvt3_runtime.a(vt3_lcd_tl.obj)
 .bss           0x00075e4c        0x0 C:\Program Files (x86)\VT3\resources\targets\TERA7\lib/\vt3_runtime\libvt3_runtime.a(vt3_lcd_tl_testable.obj)
 .bss           0x00075e4c        0x0 vt3_code/vt3_lang.obj
 .bss           0x00075e4c        0x0 vt3_code/vt3_fonts.obj
 .bss           0x00075e4c        0x0 vt3_code/vt3_IO.obj
 .bss           0x00075e4c       0x28 vt3_code/vt3_alarms.obj
 .bss           0x00075e74        0x0 vt3_code/vt3_POU__iocore_data.obj
 .bss           0x00075e74        0x0 vt3_code/vt3_POU__global_data.obj
 .bss           0x00075e74        0x0 vt3_code/vt3_POU__setup_data.obj
 .bss           0x00075e74        0x0 vt3_code/vt3_POU__splash_data.obj
 .bss           0x00075e74        0x0 vt3_code/vt3_POU__home_data.obj
 .bss           0x00075e74        0x0 vt3_code/vt3_POU__PLC_PRG.obj
 .bss           0x00075e74        0x0 vt3_code/vt3_POU__assignIO.obj
 .bss           0x00075e74        0x0 vt3_code/vt3_POU__doBrightness.obj
 .bss           0x00075e74        0x1 vt3_code/vt3_POU__usbUpdate.obj
 .bss           0x00075e75        0x0 vt3_code/vt3_POU__outputs.obj
 .bss           0x00075e75        0x0 vt3_code/vt3_POU__task100.obj
 .bss           0x00075e75        0x0 vt3_code/vt3_POU__slaveConfig.obj
 .bss           0x00075e75        0x0 vt3_code/vt3_POU__slaveConfigFB_CPU0.obj
 .bss           0x00075e75        0x0 vt3_code/vt3_POU__slaveConfigFB_CPU1.obj
 .bss           0x00075e75        0x0 vt3_code/vt3_POU__interpol.obj
 .bss           0x00075e75        0x0 vt3_code/vt3_POU_common.obj
 .bss           0x00075e75        0x0 vt3_code/vt3_vars.obj
 .bss           0x00075e75        0x0 vt3_code/vt3_var_version.obj
 .bss           0x00075e75        0x0 vt3_code/vt3_init_persistent_p_array.obj
 .bss           0x00075e75        0x0 vt3_code/vt3_init_persistent_r_array.obj
 .bss           0x00075e75        0x0 vt3_code/vt3_init_persistent_f_array.obj
 *fill*         0x00075e75        0x1 00
 .bss           0x00075e76        0x6 vt3_code/vt3_CAN__CanInterface.obj
 .bss           0x00075e7c        0x0 vt3_code/vt3_CAN_common.obj
 .bss           0x00075e7c        0x0 vt3_code/vt3_signature.obj
 .bss           0x00075e7c        0x0 vt3_code/vt3_disp_events.obj
 .bss           0x00075e7c        0x0 vt3_code/vt3_images.obj
 .bss           0x00075e7c        0x1 vt3_code/vt3_disp.obj
                0x00075e7c                vt3_force_redraw_screen_background
 .bss           0x00075e7d        0x0 vt3_code/vt3_slaves.obj
 .bss           0x00075e7d        0x0 extra/vt3_extra.obj
 .bss           0x00075e7d        0x0 C:/Users/hurdj00/Desktop/HARTST~1.1/code/Tera_7/__OBJE~1/vt3_extra.obj
 .bss           0x00075e7d        0x0 C:/Users/hurdj00/Desktop/HARTST~1.1/code/Tera_7/__OBJE~1/vt3_POU__ARR_BYTE_version.obj
 .bss           0x00075e7d        0x0 C:/Users/hurdj00/Desktop/HARTST~1.1/code/Tera_7/__OBJE~1/vt3_POU__BYTE_TO_ASCII.obj
 .bss           0x00075e7d        0x0 C:/Users/hurdj00/Desktop/HARTST~1.1/code/Tera_7/__OBJE~1/vt3_POU__check_touchcalibration.obj
 .bss           0x00075e7d        0x0 C:/Users/hurdj00/Desktop/HARTST~1.1/code/Tera_7/__OBJE~1/vt3_POU__GET_POWER_FAIL.obj
 .bss           0x00075e7d        0x0 C:/Users/hurdj00/Desktop/HARTST~1.1/code/Tera_7/__OBJE~1/vt3_POU__get_prj_version.obj
 .bss           0x00075e7d        0x0 C:/Users/hurdj00/Desktop/HARTST~1.1/code/Tera_7/__OBJE~1/vt3_POU__get_prj_version_byte.obj
 .bss           0x00075e7d        0x0 C:/Users/hurdj00/Desktop/HARTST~1.1/code/Tera_7/__OBJE~1/vt3_POU__INIT_BYTEARRAY_P.obj
 .bss           0x00075e7d        0x0 C:/Users/hurdj00/Desktop/HARTST~1.1/code/Tera_7/__OBJE~1/vt3_POU__INIT_BYTEARRAY_R.obj
 .bss           0x00075e7d        0x0 C:/Users/hurdj00/Desktop/HARTST~1.1/code/Tera_7/__OBJE~1/vt3_POU__INIT_SD_USB.obj
 .bss           0x00075e7d        0x0 C:/Users/hurdj00/Desktop/HARTST~1.1/code/Tera_7/__OBJE~1/vt3_POU__lcdSetBlank.obj
 .bss           0x00075e7d        0x0 C:/Users/hurdj00/Desktop/HARTST~1.1/code/Tera_7/__OBJE~1/vt3_POU__mountSD.obj
 .bss           0x00075e7d        0x0 C:/Users/hurdj00/Desktop/HARTST~1.1/code/Tera_7/__OBJE~1/vt3_POU__mountUSB.obj
 .bss           0x00075e7d        0x0 C:/Users/hurdj00/Desktop/HARTST~1.1/code/Tera_7/__OBJE~1/vt3_POU__REBOOT.obj
 .bss           0x00075e7d        0x0 C:/Users/hurdj00/Desktop/HARTST~1.1/code/Tera_7/__OBJE~1/vt3_POU__req_touchcalibration.obj
 .bss           0x00075e7d        0x0 C:/Users/hurdj00/Desktop/HARTST~1.1/code/Tera_7/__OBJE~1/vt3_POU__SET_POWER_FAIL_SHUTDOWN.obj
 .bss           0x00075e7d        0x0 C:/Users/hurdj00/Desktop/HARTST~1.1/code/Tera_7/__OBJE~1/vt3_POU__SHUTDOWN.obj
 .bss           0x00075e7d        0x0 C:/Users/hurdj00/Desktop/HARTST~1.1/code/Tera_7/__OBJE~1/vt3_POU__ST_TRANSLATE.obj
 .bss           0x00075e7d        0x0 C:/Users/hurdj00/Desktop/HARTST~1.1/code/Tera_7/__OBJE~1/vt3_POU__umountSD.obj
 .bss           0x00075e7d        0x0 C:/Users/hurdj00/Desktop/HARTST~1.1/code/Tera_7/__OBJE~1/vt3_POU__umountUSB.obj
 .bss           0x00075e7d        0x0 C:/Users/hurdj00/Desktop/HARTST~1.1/code/Tera_7/__OBJE~1/vt3_POU__WRITE_EL.obj
 .bss           0x00075e7d        0x0 C:/Users/hurdj00/Desktop/HARTST~1.1/code/Tera_7/__OBJE~1/vt3_POU__WRITE_EL_ENUM.obj
 .bss           0x00075e7d        0x0 C:/Users/hurdj00/Desktop/HARTST~1.1/code/Tera_7/__OBJE~1/vt3_POU__WRITE_EL_PRIVATE.obj
 .bss           0x00075e7d        0x0 C:/Users/hurdj00/Desktop/HARTST~1.1/code/Tera_7/__OBJE~1/vt3_POU__WRITE_EL_TO_SD.obj
 .bss           0x00075e7d        0x0 C:/Users/hurdj00/Desktop/HARTST~1.1/code/Tera_7/__OBJE~1/vt3_POU__WRITE_EL_TO_USB.obj
 .bss           0x00075e7d        0x0 c:/progra~2/codeso~1/source~1/bin/../lib/gcc/arm-none-linux-gnueabi/4.4.1\libgcc.a(_udivsi3.o)
 .bss           0x00075e7d        0x0 c:/progra~2/codeso~1/source~1/bin/../lib/gcc/arm-none-linux-gnueabi/4.4.1\libgcc.a(_divsi3.o)
 .bss           0x00075e7d        0x0 c:/progra~2/codeso~1/source~1/bin/../lib/gcc/arm-none-linux-gnueabi/4.4.1\libgcc.a(_arm_addsubdf3.o)
 .bss           0x00075e7d        0x0 c:/progra~2/codeso~1/source~1/bin/../lib/gcc/arm-none-linux-gnueabi/4.4.1\libgcc.a(_arm_muldivdf3.o)
 .bss           0x00075e7d        0x0 c:/progra~2/codeso~1/source~1/bin/../lib/gcc/arm-none-linux-gnueabi/4.4.1\libgcc.a(_arm_cmpdf2.o)
 .bss           0x00075e7d        0x0 c:/progra~2/codeso~1/source~1/bin/../lib/gcc/arm-none-linux-gnueabi/4.4.1\libgcc.a(_arm_fixdfsi.o)
 .bss           0x00075e7d        0x0 c:/progra~2/codeso~1/source~1/bin/../lib/gcc/arm-none-linux-gnueabi/4.4.1\libgcc.a(_arm_fixunsdfsi.o)
 .bss           0x00075e7d        0x0 c:/progra~2/codeso~1/source~1/bin/../lib/gcc/arm-none-linux-gnueabi/4.4.1\libgcc.a(_arm_truncdfsf2.o)
 .bss           0x00075e7d        0x0 c:/progra~2/codeso~1/source~1/bin/../lib/gcc/arm-none-linux-gnueabi/4.4.1\libgcc.a(_arm_addsubsf3.o)
 .bss           0x00075e7d        0x0 c:/progra~2/codeso~1/source~1/bin/../lib/gcc/arm-none-linux-gnueabi/4.4.1\libgcc.a(_arm_muldivsf3.o)
 .bss           0x00075e7d        0x0 c:/progra~2/codeso~1/source~1/bin/../lib/gcc/arm-none-linux-gnueabi/4.4.1\libgcc.a(_arm_cmpsf2.o)
 .bss           0x00075e7d        0x0 c:/progra~2/codeso~1/source~1/bin/../lib/gcc/arm-none-linux-gnueabi/4.4.1\libgcc.a(_arm_fixsfsi.o)
 .bss           0x00075e7d        0x0 c:/progra~2/codeso~1/source~1/bin/../lib/gcc/arm-none-linux-gnueabi/4.4.1\libgcc.a(_arm_fixunssfsi.o)
 .bss           0x00075e7d        0x0 c:/progra~2/codeso~1/source~1/bin/../lib/gcc/arm-none-linux-gnueabi/4.4.1\libgcc.a(_aeabi_ldivmod.o)
 .bss           0x00075e7d        0x0 c:/progra~2/codeso~1/source~1/bin/../lib/gcc/arm-none-linux-gnueabi/4.4.1\libgcc.a(_aeabi_uldivmod.o)
 .bss           0x00075e7d        0x0 c:/progra~2/codeso~1/source~1/bin/../lib/gcc/arm-none-linux-gnueabi/4.4.1\libgcc.a(_dvmd_lnx.o)
 .bss           0x00075e7d        0x0 c:/progra~2/codeso~1/source~1/bin/../lib/gcc/arm-none-linux-gnueabi/4.4.1\libgcc.a(_fixsfdi.o)
 .bss           0x00075e7d        0x0 c:/progra~2/codeso~1/source~1/bin/../lib/gcc/arm-none-linux-gnueabi/4.4.1\libgcc.a(_fixdfdi.o)
 .bss           0x00075e7d        0x0 c:/progra~2/codeso~1/source~1/bin/../lib/gcc/arm-none-linux-gnueabi/4.4.1\libgcc.a(_fixunssfdi.o)
 .bss           0x00075e7d        0x0 c:/progra~2/codeso~1/source~1/bin/../lib/gcc/arm-none-linux-gnueabi/4.4.1\libgcc.a(_fixunsdfdi.o)
 .bss           0x00075e7d        0x0 c:/progra~2/codeso~1/source~1/bin/../lib/gcc/arm-none-linux-gnueabi/4.4.1\libgcc.a(bpabi.o)
 .bss           0x00075e7d        0x0 c:/progra~2/codeso~1/source~1/bin/../lib/gcc/arm-none-linux-gnueabi/4.4.1\libgcc.a(_divdi3.o)
 .bss           0x00075e7d        0x0 c:/progra~2/codeso~1/source~1/bin/../lib/gcc/arm-none-linux-gnueabi/4.4.1\libgcc.a(_udivdi3.o)
 .bss           0x00075e7d        0x0 c:\progra~2\codeso~1\source~1\bin\../arm-none-linux-gnueabi/libc/usr/lib/libc_nonshared.a(elf-init.oS)
 .bss           0x00075e7d        0x0 c:\progra~2\codeso~1\source~1\bin\../arm-none-linux-gnueabi/libc/usr/lib/libc_nonshared.a(aeabi_read_tp.oS)
 .bss           0x00075e7d        0x0 c:/progra~2/codeso~1/source~1/bin/../lib/gcc/arm-none-linux-gnueabi/4.4.1/crtend.o
 .bss           0x00075e7d        0x0 c:/progra~2/codeso~1/source~1/bin/../arm-none-linux-gnueabi/libc/usr/lib/crtn.o
 *(COMMON)
 *fill*         0x00075e7d        0x1 00
 COMMON         0x00075e7e        0x9 C:\Program Files (x86)\VT3\resources\targets\TERA7\lib/\vt3_runtime\libvt3_runtime.a(vt3_main.obj)
                0x00075e7e                vt3_knob_esc_press
                0x00075e7f                vt3_knob_enter_press
                0x00075e80                vt3_knob_enter_release
                0x00075e82                vt3_knob_right
                0x00075e84                vt3_knob_left
                0x00075e86                vt3_knob_esc_release
 *fill*         0x00075e87        0x1 00
 COMMON         0x00075e88        0x4 C:\Program Files (x86)\VT3\resources\targets\TERA7\lib/\vt3_runtime\libvt3_runtime.a(vt3_pdf.obj)
                0x00075e88                vt3_pdf_referenced_symbol
 COMMON         0x00075e8c        0x4 C:\Program Files (x86)\VT3\resources\targets\TERA7\lib/\vt3_runtime\libvt3_runtime.a(vt3_task.obj)
                0x00075e8c                glb_task_attr
 COMMON         0x00075e90        0x8 C:\Program Files (x86)\VT3\resources\targets\TERA7\lib/\vt3_runtime\libvt3_runtime.a(lcd_dfb.obj)
                0x00075e90                mouse_y
                0x00075e94                mouse_x
 COMMON         0x00075e98        0x2 C:\Program Files (x86)\VT3\resources\targets\TERA7\lib/\vt3_runtime\libvt3_runtime.a(vt3_canlib.obj)
                0x00075e98                j1939_MultiPacket_tx_timeout
 *fill*         0x00075e9a        0x2 00
 COMMON         0x00075e9c        0x8 C:\Program Files (x86)\VT3\resources\targets\TERA7\lib/\vt3_runtime\libvt3_runtime.a(vt3_lcd_3b6.obj)
                0x00075e9c                VT3_HSIZE
                0x00075ea0                VT3_VSIZE
 COMMON         0x00075ea4        0xb C:\Program Files (x86)\VT3\resources\targets\TERA7\lib/\vt3_runtime\libvt3_runtime.a(vt3_lcd_tl.obj)
                0x00075ea4                vt3_disp_knob_right
                0x00075ea6                vt3_disp_knob_enter_long
                0x00075ea7                vt3_disp_knob_esc_long
                0x00075ea8                vt3_disp_knob_enter
                0x00075ea9                vt3_disp_knob_esc_release
                0x00075eaa                vt3_disp_knob_left
                0x00075eac                vt3_disp_knob_enter_press
                0x00075ead                vt3_disp_knob_esc_press
                0x00075eae                vt3_disp_knob_enter_release
 *fill*         0x00075eaf        0x1 00
 COMMON         0x00075eb0        0x6 vt3_code/vt3_IO.obj
                0x00075eb0                vt3_force_values
                0x00075eb4                vt3_force_flags
 *fill*         0x00075eb6        0x2 00
 COMMON         0x00075eb8       0x28 vt3_code/vt3_alarms.obj
                0x00075eb8                vt3_alarm_status
                0x00075ebc                vt3_elog_communication_status
                0x00075ed4                vt3_devices_alarm_status
 COMMON         0x00075ee0    0x13eba vt3_code/vt3_vars.obj
                0x00075ee0                BYTEK
                0x00075ee4                GET_POWER_FAIL
                0x00075ee7                vt3_app_CPU_load
                0x00075ee8                vt3_can_trigger_IO_CORE_CPU0_RPDO1
                0x00075ee9                IO_StrobeLight
                0x00075eea                vt3_can_trigger_IO_CORE_CPU0_RPDO5
                0x00075eec                IO_kennel6Temp
                0x00075eee                vt3_can_alarm_IO_CORE_CPU0_TPDO3
                0x00075ef0                PLC_PRG
                0x00075ef4                vt3_on_error_counter_array_overflow
                0x00075ef8                vt3_bytearray_P_error
                0x00075ef9                IO_AC
                0x00075efa                vt3_bytearray_R_warning
                0x00075efc                vt3_on_error_counter_out_of_memory
                0x00075f00                slaveConfigFB_CPU0
                0x00075f04                lcdSetBlank
                0x00075f07                vt3_can_alarm_IO_CORE_CPU1_TPDO4
                0x00075f08                vt3_on_error_counter_number_overflow
                0x00075f0c                WRITE_EL_TO_USB
                0x00075f14                vt3_task_run_time_task100
                0x00075f18                BYTEF
                0x00075f1c                doBrightness
                0x00075f20                vt3_configure_slave_IO_CORE_CPU0
                0x00075f3c                vt3_on_error_counter_conversion_out_of_range
                0x00075f40                BYTER
                0x00079dc0                CO_nodeid
                0x00079dc2                IO_kennel5Temp
                0x00079dc4                usbUpdate
                0x00079dc8                BYTE_TO_ASCII
                0x00079dd2                vt3_can_alarm_CAN_Heartbeat_CPU01
                0x00079dd3                vt3_can_alarm_IO_CORE_CPU0_TPDO4
                0x00079dd4                IO_VBPlus
                0x00079dd6                vt3_can_period_IO_CORE_CPU0_RPDO1
                0x00079dd8                vt3_on_error_counter_subrange
                0x00079ddc                vt3_can_period_IO_CORE_CPU0_RPDO5
                0x00079de0                vt3_on_error_counter_string_corrupt
                0x00079de4                vt3_task_run_time_video_task
                0x00079de8                vt3_CPU_load
                0x00079de9                vt3_can_alarm_IO_CORE_CPU1_TPDO1
                0x00079dea                vt3_can_alarm_IO_CORE_CPU1_TPDO5
                0x00079dec                vt3_language
                0x00079df0                INIT_BYTEARRAY_R
                0x00079df4                vt3_on_error_counter_zero_division
                0x00079df8                vt3_on_error_counter_string_size
                0x00079dfc                slaveConfigFB_CPU1
                0x00079e00                vt3_on_error_counter_parameter
                0x00079e04                BYTEE
                0x00079e08                vt3_on_error_counter_operation_out_of_range
                0x00079e0c                vt3_configure_slave_IO_CORE_CPU1
                0x00079e28                BYTEQ
                0x00079e2c                vt3_can_alarm_busoff_CAN_interface
                0x00079e30                SHUTDOWN
                0x00079e32                IO_InteriorLight
                0x00079e34                REBOOT
                0x00079e38                BYTEI
                0x00079e40                SET_POWER_FAIL_SHUTDOWN
                0x00079e44                BYTEM
                0x00079f34                vt3_task_run_time_CAN_bus_task
                0x00079f38                vt3_can_alarm_CAN_Heartbeat_CPU02
                0x00079f39                vt3_can_alarm_IO_CORE_CPU0_TPDO1
                0x00079f3c                vt3_task_run_time_PLC_PRG
                0x00079f40                vt3_on_error_counter_string_overflow
                0x00079f44                IO_Fan
                0x00079f46                IO_kennel4Temp
                0x00079f48                vt3_can_alarm_IO_CORE_CPU0_TPDO5
                0x00079f4c                outputs
                0x00079f4e                IO_kennel2Temp
                0x00079f50                vt3_can_alarm_IO_CORE_CPU1_TPDO2
                0x00079f51                vt3_bytearray_R_error
                0x00079f54                WRITE_EL_TO_SD
                0x00079f5a                vt3_bytearray_P_warning
                0x00079f5c                vt3_screen
                0x00079f5e                IO_ReverseGear
                0x00079f5f                CO_cmd
                0x00079f60                BYTEP
                0x00089d48                INIT_SD_USB
                0x00089d4a                IO2_state
                0x00089d4c                slaveConfig
                0x00089d50                vt3_alarm_inhibition_bitmask
                0x00089d54                get_prj_version_byte
                0x00089d6b                vt3_can_alarm_IO_CORE_CPU0_TPDO2
                0x00089d6c                assignIO
                0x00089d6e                IO_kennel1Temp
                0x00089d70                IO_kennel3Temp
                0x00089d72                IO_Heat
                0x00089d74                get_prj_version
                0x00089d90                task100
                0x00089d92                IO_StrobePattern
                0x00089d94                INIT_BYTEARRAY_P
                0x00089d96                IO1_state
                0x00089d97                vt3_can_alarm_IO_CORE_CPU1_TPDO3
                0x00089d98                BYTES
 *fill*         0x00089d9a        0x2 00
 COMMON         0x00089d9c      0x6a0 vt3_code/vt3_disp.obj
                0x00089d9c                ind_screen_frame_key_F12
                0x00089da4                ind_screen_frame_key_F2
                0x00089dac                ind_screen_frame_key_F6
                0x00089db4                ind_screen_frame_keys_backlight
                0x00089dbc                ind_screen_frame_key_F9
                0x00089dc4                ind_screen_frame_key_F13
                0x00089dcc                vt3_screen_union
                0x0008a3d4                ind_screen_frame_screen_backlight
                0x0008a3dc                ind_screen_frame_keys_buzzer
                0x0008a3e4                ind_screen_frame_key_F1
                0x0008a3ec                ind_screen_frame_key_F5
                0x0008a3f4                ind_screen_frame_key_F10
                0x0008a3fc                ind_screen_frame_key_F14
                0x0008a404                ind_screen_frame_key_F8
                0x0008a40c                ind_screen_frame_buzzer
                0x0008a414                ind_screen_frame_key_F4
                0x0008a41c                ind_screen_frame_key_F11
                0x0008a424                ind_screen_frame_key_F15
                0x0008a42c                ind_screen_frame_key_F7
                0x0008a434                ind_screen_frame_key_F3
                0x0008a43c                . = ALIGN ((. != 0x0)?0x4:0x1)
                0x0008a43c                _bss_end__ = .
                0x0008a43c                __bss_end__ = .
                0x0008a43c                . = ALIGN (0x4)
                0x0008a43c                . = ALIGN (0x4)
                0x0008a43c                __end__ = .
                0x0008a43c                _end = .
                0x0008a43c                PROVIDE (end, .)
                0x0008a43c                . = DATA_SEGMENT_END (.)

.stab
 *(.stab)

.stabstr
 *(.stabstr)

.stab.excl
 *(.stab.excl)

.stab.exclstr
 *(.stab.exclstr)

.stab.index
 *(.stab.index)

.stab.indexstr
 *(.stab.indexstr)

.ARM.attributes
                0x00000000       0x33
 .ARM.attributes
                0x00000000       0x2b c:/progra~2/codeso~1/source~1/bin/../arm-none-linux-gnueabi/libc/usr/lib/crt1.o
 .ARM.attributes
                0x0000002b       0x2d c:/progra~2/codeso~1/source~1/bin/../arm-none-linux-gnueabi/libc/usr/lib/crti.o
 .ARM.attributes
                0x00000058       0x2d c:/progra~2/codeso~1/source~1/bin/../lib/gcc/arm-none-linux-gnueabi/4.4.1/crtbegin.o
 .ARM.attributes
                0x00000085       0x35 C:\Program Files (x86)\VT3\resources\targets\TERA7\lib//vt3_runtime/harfbuzz_fribidi_wrapper_empty.o
 .ARM.attributes
                0x000000ba       0x35 C:\Program Files (x86)\VT3\resources\targets\TERA7\lib/\vt3_runtime\libvt3_runtime.a(vt3_main.obj)
 .ARM.attributes
                0x000000ef       0x35 C:\Program Files (x86)\VT3\resources\targets\TERA7\lib/\vt3_runtime\libvt3_runtime.a(vt3_pdf.obj)
 .ARM.attributes
                0x00000124       0x35 C:\Program Files (x86)\VT3\resources\targets\TERA7\lib/\vt3_runtime\libvt3_runtime.a(vt3_slaves.obj)
 .ARM.attributes
                0x00000159       0x35 C:\Program Files (x86)\VT3\resources\targets\TERA7\lib/\vt3_runtime\libvt3_runtime.a(vt3_stats.obj)
 .ARM.attributes
                0x0000018e       0x35 C:\Program Files (x86)\VT3\resources\targets\TERA7\lib/\vt3_runtime\libvt3_runtime.a(vt3_task.obj)
 .ARM.attributes
                0x000001c3       0x35 C:\Program Files (x86)\VT3\resources\targets\TERA7\lib/\vt3_runtime\libvt3_runtime.a(vt3_trend.obj)
 .ARM.attributes
                0x000001f8       0x35 C:\Program Files (x86)\VT3\resources\targets\TERA7\lib/\vt3_runtime\libvt3_runtime.a(akima_interpolator.obj)
 .ARM.attributes
                0x0000022d       0x35 C:\Program Files (x86)\VT3\resources\targets\TERA7\lib/\vt3_runtime\libvt3_runtime.a(ieclib.obj)
 .ARM.attributes
                0x00000262       0x35 C:\Program Files (x86)\VT3\resources\targets\TERA7\lib/\vt3_runtime\libvt3_runtime.a(lcd_dfb.obj)
 .ARM.attributes
                0x00000297       0x35 C:\Program Files (x86)\VT3\resources\targets\TERA7\lib/\vt3_runtime\libvt3_runtime.a(vt3_canlib.obj)
 .ARM.attributes
                0x000002cc       0x35 C:\Program Files (x86)\VT3\resources\targets\TERA7\lib/\vt3_runtime\libvt3_runtime.a(vt3_canlib_testable.obj)
 .ARM.attributes
                0x00000301       0x35 C:\Program Files (x86)\VT3\resources\targets\TERA7\lib/\vt3_runtime\libvt3_runtime.a(vt3_elog.obj)
 .ARM.attributes
                0x00000336       0x35 C:\Program Files (x86)\VT3\resources\targets\TERA7\lib/\vt3_runtime\libvt3_runtime.a(vt3_lcd_3b6.obj)
 .ARM.attributes
                0x0000036b       0x35 C:\Program Files (x86)\VT3\resources\targets\TERA7\lib/\vt3_runtime\libvt3_runtime.a(vt3_lcd_tl.obj)
 .ARM.attributes
                0x000003a0       0x35 C:\Program Files (x86)\VT3\resources\targets\TERA7\lib/\vt3_runtime\libvt3_runtime.a(vt3_lcd_tl_testable.obj)
 .ARM.attributes
                0x000003d5       0x35 vt3_code/vt3_lang.obj
 .ARM.attributes
                0x0000040a       0x35 vt3_code/vt3_fonts.obj
 .ARM.attributes
                0x0000043f       0x35 vt3_code/vt3_IO.obj
 .ARM.attributes
                0x00000474       0x35 vt3_code/vt3_alarms.obj
 .ARM.attributes
                0x000004a9       0x35 vt3_code/vt3_POU__iocore_data.obj
 .ARM.attributes
                0x000004de       0x35 vt3_code/vt3_POU__global_data.obj
 .ARM.attributes
                0x00000513       0x35 vt3_code/vt3_POU__setup_data.obj
 .ARM.attributes
                0x00000548       0x35 vt3_code/vt3_POU__splash_data.obj
 .ARM.attributes
                0x0000057d       0x35 vt3_code/vt3_POU__home_data.obj
 .ARM.attributes
                0x000005b2       0x35 vt3_code/vt3_POU__PLC_PRG.obj
 .ARM.attributes
                0x000005e7       0x35 vt3_code/vt3_POU__assignIO.obj
 .ARM.attributes
                0x0000061c       0x35 vt3_code/vt3_POU__doBrightness.obj
 .ARM.attributes
                0x00000651       0x35 vt3_code/vt3_POU__usbUpdate.obj
 .ARM.attributes
                0x00000686       0x35 vt3_code/vt3_POU__outputs.obj
 .ARM.attributes
                0x000006bb       0x35 vt3_code/vt3_POU__task100.obj
 .ARM.attributes
                0x000006f0       0x35 vt3_code/vt3_POU__slaveConfig.obj
 .ARM.attributes
                0x00000725       0x35 vt3_code/vt3_POU__slaveConfigFB_CPU0.obj
 .ARM.attributes
                0x0000075a       0x35 vt3_code/vt3_POU__slaveConfigFB_CPU1.obj
 .ARM.attributes
                0x0000078f       0x35 vt3_code/vt3_POU__interpol.obj
 .ARM.attributes
                0x000007c4       0x35 vt3_code/vt3_POU_common.obj
 .ARM.attributes
                0x000007f9       0x35 vt3_code/vt3_vars.obj
 .ARM.attributes
                0x0000082e       0x35 vt3_code/vt3_var_version.obj
 .ARM.attributes
                0x00000863       0x35 vt3_code/vt3_init_persistent_p_array.obj
 .ARM.attributes
                0x00000898       0x35 vt3_code/vt3_init_persistent_r_array.obj
 .ARM.attributes
                0x000008cd       0x35 vt3_code/vt3_init_persistent_f_array.obj
 .ARM.attributes
                0x00000902       0x35 vt3_code/vt3_CAN__CanInterface.obj
 .ARM.attributes
                0x00000937       0x35 vt3_code/vt3_CAN_common.obj
 .ARM.attributes
                0x0000096c       0x35 vt3_code/vt3_signature.obj
 .ARM.attributes
                0x000009a1       0x35 vt3_code/vt3_disp_events.obj
 .ARM.attributes
                0x000009d6       0x35 vt3_code/vt3_images.obj
 .ARM.attributes
                0x00000a0b       0x35 vt3_code/vt3_disp.obj
 .ARM.attributes
                0x00000a40       0x35 vt3_code/vt3_slaves.obj
 .ARM.attributes
                0x00000a75       0x35 extra/vt3_extra.obj
 .ARM.attributes
                0x00000aaa       0x35 C:/Users/hurdj00/Desktop/HARTST~1.1/code/Tera_7/__OBJE~1/vt3_extra.obj
 .ARM.attributes
                0x00000adf       0x35 C:/Users/hurdj00/Desktop/HARTST~1.1/code/Tera_7/__OBJE~1/vt3_POU__ARR_BYTE_version.obj
 .ARM.attributes
                0x00000b14       0x35 C:/Users/hurdj00/Desktop/HARTST~1.1/code/Tera_7/__OBJE~1/vt3_POU__BYTE_TO_ASCII.obj
 .ARM.attributes
                0x00000b49       0x35 C:/Users/hurdj00/Desktop/HARTST~1.1/code/Tera_7/__OBJE~1/vt3_POU__check_touchcalibration.obj
 .ARM.attributes
                0x00000b7e       0x35 C:/Users/hurdj00/Desktop/HARTST~1.1/code/Tera_7/__OBJE~1/vt3_POU__GET_POWER_FAIL.obj
 .ARM.attributes
                0x00000bb3       0x35 C:/Users/hurdj00/Desktop/HARTST~1.1/code/Tera_7/__OBJE~1/vt3_POU__get_prj_version.obj
 .ARM.attributes
                0x00000be8       0x35 C:/Users/hurdj00/Desktop/HARTST~1.1/code/Tera_7/__OBJE~1/vt3_POU__get_prj_version_byte.obj
 .ARM.attributes
                0x00000c1d       0x35 C:/Users/hurdj00/Desktop/HARTST~1.1/code/Tera_7/__OBJE~1/vt3_POU__INIT_BYTEARRAY_P.obj
 .ARM.attributes
                0x00000c52       0x35 C:/Users/hurdj00/Desktop/HARTST~1.1/code/Tera_7/__OBJE~1/vt3_POU__INIT_BYTEARRAY_R.obj
 .ARM.attributes
                0x00000c87       0x35 C:/Users/hurdj00/Desktop/HARTST~1.1/code/Tera_7/__OBJE~1/vt3_POU__INIT_SD_USB.obj
 .ARM.attributes
                0x00000cbc       0x35 C:/Users/hurdj00/Desktop/HARTST~1.1/code/Tera_7/__OBJE~1/vt3_POU__lcdSetBlank.obj
 .ARM.attributes
                0x00000cf1       0x35 C:/Users/hurdj00/Desktop/HARTST~1.1/code/Tera_7/__OBJE~1/vt3_POU__mountSD.obj
 .ARM.attributes
                0x00000d26       0x35 C:/Users/hurdj00/Desktop/HARTST~1.1/code/Tera_7/__OBJE~1/vt3_POU__mountUSB.obj
 .ARM.attributes
                0x00000d5b       0x35 C:/Users/hurdj00/Desktop/HARTST~1.1/code/Tera_7/__OBJE~1/vt3_POU__REBOOT.obj
 .ARM.attributes
                0x00000d90       0x35 C:/Users/hurdj00/Desktop/HARTST~1.1/code/Tera_7/__OBJE~1/vt3_POU__req_touchcalibration.obj
 .ARM.attributes
                0x00000dc5       0x35 C:/Users/hurdj00/Desktop/HARTST~1.1/code/Tera_7/__OBJE~1/vt3_POU__SET_POWER_FAIL_SHUTDOWN.obj
 .ARM.attributes
                0x00000dfa       0x35 C:/Users/hurdj00/Desktop/HARTST~1.1/code/Tera_7/__OBJE~1/vt3_POU__SHUTDOWN.obj
 .ARM.attributes
                0x00000e2f       0x35 C:/Users/hurdj00/Desktop/HARTST~1.1/code/Tera_7/__OBJE~1/vt3_POU__ST_TRANSLATE.obj
 .ARM.attributes
                0x00000e64       0x35 C:/Users/hurdj00/Desktop/HARTST~1.1/code/Tera_7/__OBJE~1/vt3_POU__umountSD.obj
 .ARM.attributes
                0x00000e99       0x35 C:/Users/hurdj00/Desktop/HARTST~1.1/code/Tera_7/__OBJE~1/vt3_POU__umountUSB.obj
 .ARM.attributes
                0x00000ece       0x35 C:/Users/hurdj00/Desktop/HARTST~1.1/code/Tera_7/__OBJE~1/vt3_POU__WRITE_EL.obj
 .ARM.attributes
                0x00000f03       0x35 C:/Users/hurdj00/Desktop/HARTST~1.1/code/Tera_7/__OBJE~1/vt3_POU__WRITE_EL_ENUM.obj
 .ARM.attributes
                0x00000f38       0x35 C:/Users/hurdj00/Desktop/HARTST~1.1/code/Tera_7/__OBJE~1/vt3_POU__WRITE_EL_PRIVATE.obj
 .ARM.attributes
                0x00000f6d       0x35 C:/Users/hurdj00/Desktop/HARTST~1.1/code/Tera_7/__OBJE~1/vt3_POU__WRITE_EL_TO_SD.obj
 .ARM.attributes
                0x00000fa2       0x35 C:/Users/hurdj00/Desktop/HARTST~1.1/code/Tera_7/__OBJE~1/vt3_POU__WRITE_EL_TO_USB.obj
 .ARM.attributes
                0x00000fd7       0x1f c:/progra~2/codeso~1/source~1/bin/../lib/gcc/arm-none-linux-gnueabi/4.4.1\libgcc.a(_udivsi3.o)
 .ARM.attributes
                0x00000ff6       0x1f c:/progra~2/codeso~1/source~1/bin/../lib/gcc/arm-none-linux-gnueabi/4.4.1\libgcc.a(_divsi3.o)
 .ARM.attributes
                0x00001015       0x1f c:/progra~2/codeso~1/source~1/bin/../lib/gcc/arm-none-linux-gnueabi/4.4.1\libgcc.a(_arm_addsubdf3.o)
 .ARM.attributes
                0x00001034       0x1f c:/progra~2/codeso~1/source~1/bin/../lib/gcc/arm-none-linux-gnueabi/4.4.1\libgcc.a(_arm_muldivdf3.o)
 .ARM.attributes
                0x00001053       0x1f c:/progra~2/codeso~1/source~1/bin/../lib/gcc/arm-none-linux-gnueabi/4.4.1\libgcc.a(_arm_cmpdf2.o)
 .ARM.attributes
                0x00001072       0x1f c:/progra~2/codeso~1/source~1/bin/../lib/gcc/arm-none-linux-gnueabi/4.4.1\libgcc.a(_arm_fixdfsi.o)
 .ARM.attributes
                0x00001091       0x1f c:/progra~2/codeso~1/source~1/bin/../lib/gcc/arm-none-linux-gnueabi/4.4.1\libgcc.a(_arm_fixunsdfsi.o)
 .ARM.attributes
                0x000010b0       0x1f c:/progra~2/codeso~1/source~1/bin/../lib/gcc/arm-none-linux-gnueabi/4.4.1\libgcc.a(_arm_truncdfsf2.o)
 .ARM.attributes
                0x000010cf       0x1f c:/progra~2/codeso~1/source~1/bin/../lib/gcc/arm-none-linux-gnueabi/4.4.1\libgcc.a(_arm_addsubsf3.o)
 .ARM.attributes
                0x000010ee       0x1f c:/progra~2/codeso~1/source~1/bin/../lib/gcc/arm-none-linux-gnueabi/4.4.1\libgcc.a(_arm_muldivsf3.o)
 .ARM.attributes
                0x0000110d       0x1f c:/progra~2/codeso~1/source~1/bin/../lib/gcc/arm-none-linux-gnueabi/4.4.1\libgcc.a(_arm_cmpsf2.o)
 .ARM.attributes
                0x0000112c       0x1f c:/progra~2/codeso~1/source~1/bin/../lib/gcc/arm-none-linux-gnueabi/4.4.1\libgcc.a(_arm_fixsfsi.o)
 .ARM.attributes
                0x0000114b       0x1f c:/progra~2/codeso~1/source~1/bin/../lib/gcc/arm-none-linux-gnueabi/4.4.1\libgcc.a(_arm_fixunssfsi.o)
 .ARM.attributes
                0x0000116a       0x1f c:/progra~2/codeso~1/source~1/bin/../lib/gcc/arm-none-linux-gnueabi/4.4.1\libgcc.a(_aeabi_ldivmod.o)
 .ARM.attributes
                0x00001189       0x1f c:/progra~2/codeso~1/source~1/bin/../lib/gcc/arm-none-linux-gnueabi/4.4.1\libgcc.a(_aeabi_uldivmod.o)
 .ARM.attributes
                0x000011a8       0x1f c:/progra~2/codeso~1/source~1/bin/../lib/gcc/arm-none-linux-gnueabi/4.4.1\libgcc.a(_dvmd_lnx.o)
 .ARM.attributes
                0x000011c7       0x2d c:/progra~2/codeso~1/source~1/bin/../lib/gcc/arm-none-linux-gnueabi/4.4.1\libgcc.a(_fixsfdi.o)
 .ARM.attributes
                0x000011f4       0x2d c:/progra~2/codeso~1/source~1/bin/../lib/gcc/arm-none-linux-gnueabi/4.4.1\libgcc.a(_fixdfdi.o)
 .ARM.attributes
                0x00001221       0x2d c:/progra~2/codeso~1/source~1/bin/../lib/gcc/arm-none-linux-gnueabi/4.4.1\libgcc.a(_fixunssfdi.o)
 .ARM.attributes
                0x0000124e       0x2d c:/progra~2/codeso~1/source~1/bin/../lib/gcc/arm-none-linux-gnueabi/4.4.1\libgcc.a(_fixunsdfdi.o)
 .ARM.attributes
                0x0000127b       0x2d c:/progra~2/codeso~1/source~1/bin/../lib/gcc/arm-none-linux-gnueabi/4.4.1\libgcc.a(bpabi.o)
 .ARM.attributes
                0x000012a8       0x2d c:/progra~2/codeso~1/source~1/bin/../lib/gcc/arm-none-linux-gnueabi/4.4.1\libgcc.a(_divdi3.o)
 .ARM.attributes
                0x000012d5       0x2d c:/progra~2/codeso~1/source~1/bin/../lib/gcc/arm-none-linux-gnueabi/4.4.1\libgcc.a(_udivdi3.o)
 .ARM.attributes
                0x00001302       0x2d c:\progra~2\codeso~1\source~1\bin\../arm-none-linux-gnueabi/libc/usr/lib/libc_nonshared.a(elf-init.oS)
 .ARM.attributes
                0x0000132f       0x21 c:\progra~2\codeso~1\source~1\bin\../arm-none-linux-gnueabi/libc/usr/lib/libc_nonshared.a(aeabi_read_tp.oS)
 .ARM.attributes
                0x00001350       0x2d c:/progra~2/codeso~1/source~1/bin/../lib/gcc/arm-none-linux-gnueabi/4.4.1/crtend.o
 .ARM.attributes
                0x0000137d       0x2d c:/progra~2/codeso~1/source~1/bin/../arm-none-linux-gnueabi/libc/usr/lib/crtn.o

.comment        0x00000000      0xc6e
 *(.comment)
 .comment       0x00000000       0x2b C:\Program Files (x86)\VT3\resources\targets\TERA7\lib//vt3_runtime/harfbuzz_fribidi_wrapper_empty.o
 .comment       0x0000002b       0x2b C:\Program Files (x86)\VT3\resources\targets\TERA7\lib/\vt3_runtime\libvt3_runtime.a(vt3_main.obj)
 .comment       0x00000056       0x2b C:\Program Files (x86)\VT3\resources\targets\TERA7\lib/\vt3_runtime\libvt3_runtime.a(vt3_pdf.obj)
 .comment       0x00000081       0x2b C:\Program Files (x86)\VT3\resources\targets\TERA7\lib/\vt3_runtime\libvt3_runtime.a(vt3_slaves.obj)
 .comment       0x000000ac       0x2b C:\Program Files (x86)\VT3\resources\targets\TERA7\lib/\vt3_runtime\libvt3_runtime.a(vt3_stats.obj)
 .comment       0x000000d7       0x2b C:\Program Files (x86)\VT3\resources\targets\TERA7\lib/\vt3_runtime\libvt3_runtime.a(vt3_task.obj)
 .comment       0x00000102       0x2b C:\Program Files (x86)\VT3\resources\targets\TERA7\lib/\vt3_runtime\libvt3_runtime.a(vt3_trend.obj)
 .comment       0x0000012d       0x2b C:\Program Files (x86)\VT3\resources\targets\TERA7\lib/\vt3_runtime\libvt3_runtime.a(akima_interpolator.obj)
 .comment       0x00000158       0x2b C:\Program Files (x86)\VT3\resources\targets\TERA7\lib/\vt3_runtime\libvt3_runtime.a(ieclib.obj)
 .comment       0x00000183       0x2b C:\Program Files (x86)\VT3\resources\targets\TERA7\lib/\vt3_runtime\libvt3_runtime.a(lcd_dfb.obj)
 .comment       0x000001ae       0x2b C:\Program Files (x86)\VT3\resources\targets\TERA7\lib/\vt3_runtime\libvt3_runtime.a(vt3_canlib.obj)
 .comment       0x000001d9       0x2b C:\Program Files (x86)\VT3\resources\targets\TERA7\lib/\vt3_runtime\libvt3_runtime.a(vt3_canlib_testable.obj)
 .comment       0x00000204       0x2b C:\Program Files (x86)\VT3\resources\targets\TERA7\lib/\vt3_runtime\libvt3_runtime.a(vt3_elog.obj)
 .comment       0x0000022f       0x2b C:\Program Files (x86)\VT3\resources\targets\TERA7\lib/\vt3_runtime\libvt3_runtime.a(vt3_lcd_3b6.obj)
 .comment       0x0000025a       0x2b C:\Program Files (x86)\VT3\resources\targets\TERA7\lib/\vt3_runtime\libvt3_runtime.a(vt3_lcd_tl.obj)
 .comment       0x00000285       0x2b C:\Program Files (x86)\VT3\resources\targets\TERA7\lib/\vt3_runtime\libvt3_runtime.a(vt3_lcd_tl_testable.obj)
 .comment       0x000002b0       0x2b vt3_code/vt3_lang.obj
 .comment       0x000002db       0x2b vt3_code/vt3_fonts.obj
 .comment       0x00000306       0x2b vt3_code/vt3_IO.obj
 .comment       0x00000331       0x2b vt3_code/vt3_alarms.obj
 .comment       0x0000035c       0x2b vt3_code/vt3_POU__iocore_data.obj
 .comment       0x00000387       0x2b vt3_code/vt3_POU__global_data.obj
 .comment       0x000003b2       0x2b vt3_code/vt3_POU__setup_data.obj
 .comment       0x000003dd       0x2b vt3_code/vt3_POU__splash_data.obj
 .comment       0x00000408       0x2b vt3_code/vt3_POU__home_data.obj
 .comment       0x00000433       0x2b vt3_code/vt3_POU__PLC_PRG.obj
 .comment       0x0000045e       0x2b vt3_code/vt3_POU__assignIO.obj
 .comment       0x00000489       0x2b vt3_code/vt3_POU__doBrightness.obj
 .comment       0x000004b4       0x2b vt3_code/vt3_POU__usbUpdate.obj
 .comment       0x000004df       0x2b vt3_code/vt3_POU__outputs.obj
 .comment       0x0000050a       0x2b vt3_code/vt3_POU__task100.obj
 .comment       0x00000535       0x2b vt3_code/vt3_POU__slaveConfig.obj
 .comment       0x00000560       0x2b vt3_code/vt3_POU__slaveConfigFB_CPU0.obj
 .comment       0x0000058b       0x2b vt3_code/vt3_POU__slaveConfigFB_CPU1.obj
 .comment       0x000005b6       0x2b vt3_code/vt3_POU__interpol.obj
 .comment       0x000005e1       0x2b vt3_code/vt3_POU_common.obj
 .comment       0x0000060c       0x2b vt3_code/vt3_vars.obj
 .comment       0x00000637       0x2b vt3_code/vt3_var_version.obj
 .comment       0x00000662       0x2b vt3_code/vt3_init_persistent_p_array.obj
 .comment       0x0000068d       0x2b vt3_code/vt3_init_persistent_r_array.obj
 .comment       0x000006b8       0x2b vt3_code/vt3_init_persistent_f_array.obj
 .comment       0x000006e3       0x2b vt3_code/vt3_CAN__CanInterface.obj
 .comment       0x0000070e       0x2b vt3_code/vt3_CAN_common.obj
 .comment       0x00000739       0x2b vt3_code/vt3_signature.obj
 .comment       0x00000764       0x2b vt3_code/vt3_disp_events.obj
 .comment       0x0000078f       0x2b vt3_code/vt3_images.obj
 .comment       0x000007ba       0x2b vt3_code/vt3_disp.obj
 .comment       0x000007e5       0x2b vt3_code/vt3_slaves.obj
 .comment       0x00000810       0x2b extra/vt3_extra.obj
 .comment       0x0000083b       0x2b C:/Users/hurdj00/Desktop/HARTST~1.1/code/Tera_7/__OBJE~1/vt3_extra.obj
 .comment       0x00000866       0x2b C:/Users/hurdj00/Desktop/HARTST~1.1/code/Tera_7/__OBJE~1/vt3_POU__ARR_BYTE_version.obj
 .comment       0x00000891       0x2b C:/Users/hurdj00/Desktop/HARTST~1.1/code/Tera_7/__OBJE~1/vt3_POU__BYTE_TO_ASCII.obj
 .comment       0x000008bc       0x2b C:/Users/hurdj00/Desktop/HARTST~1.1/code/Tera_7/__OBJE~1/vt3_POU__check_touchcalibration.obj
 .comment       0x000008e7       0x2b C:/Users/hurdj00/Desktop/HARTST~1.1/code/Tera_7/__OBJE~1/vt3_POU__GET_POWER_FAIL.obj
 .comment       0x00000912       0x2b C:/Users/hurdj00/Desktop/HARTST~1.1/code/Tera_7/__OBJE~1/vt3_POU__get_prj_version.obj
 .comment       0x0000093d       0x2b C:/Users/hurdj00/Desktop/HARTST~1.1/code/Tera_7/__OBJE~1/vt3_POU__get_prj_version_byte.obj
 .comment       0x00000968       0x2b C:/Users/hurdj00/Desktop/HARTST~1.1/code/Tera_7/__OBJE~1/vt3_POU__INIT_BYTEARRAY_P.obj
 .comment       0x00000993       0x2b C:/Users/hurdj00/Desktop/HARTST~1.1/code/Tera_7/__OBJE~1/vt3_POU__INIT_BYTEARRAY_R.obj
 .comment       0x000009be       0x2b C:/Users/hurdj00/Desktop/HARTST~1.1/code/Tera_7/__OBJE~1/vt3_POU__INIT_SD_USB.obj
 .comment       0x000009e9       0x2b C:/Users/hurdj00/Desktop/HARTST~1.1/code/Tera_7/__OBJE~1/vt3_POU__lcdSetBlank.obj
 .comment       0x00000a14       0x2b C:/Users/hurdj00/Desktop/HARTST~1.1/code/Tera_7/__OBJE~1/vt3_POU__mountSD.obj
 .comment       0x00000a3f       0x2b C:/Users/hurdj00/Desktop/HARTST~1.1/code/Tera_7/__OBJE~1/vt3_POU__mountUSB.obj
 .comment       0x00000a6a       0x2b C:/Users/hurdj00/Desktop/HARTST~1.1/code/Tera_7/__OBJE~1/vt3_POU__REBOOT.obj
 .comment       0x00000a95       0x2b C:/Users/hurdj00/Desktop/HARTST~1.1/code/Tera_7/__OBJE~1/vt3_POU__req_touchcalibration.obj
 .comment       0x00000ac0       0x2b C:/Users/hurdj00/Desktop/HARTST~1.1/code/Tera_7/__OBJE~1/vt3_POU__SET_POWER_FAIL_SHUTDOWN.obj
 .comment       0x00000aeb       0x2b C:/Users/hurdj00/Desktop/HARTST~1.1/code/Tera_7/__OBJE~1/vt3_POU__SHUTDOWN.obj
 .comment       0x00000b16       0x2b C:/Users/hurdj00/Desktop/HARTST~1.1/code/Tera_7/__OBJE~1/vt3_POU__ST_TRANSLATE.obj
 .comment       0x00000b41       0x2b C:/Users/hurdj00/Desktop/HARTST~1.1/code/Tera_7/__OBJE~1/vt3_POU__umountSD.obj
 .comment       0x00000b6c       0x2b C:/Users/hurdj00/Desktop/HARTST~1.1/code/Tera_7/__OBJE~1/vt3_POU__umountUSB.obj
 .comment       0x00000b97       0x2b C:/Users/hurdj00/Desktop/HARTST~1.1/code/Tera_7/__OBJE~1/vt3_POU__WRITE_EL.obj
 .comment       0x00000bc2       0x2b C:/Users/hurdj00/Desktop/HARTST~1.1/code/Tera_7/__OBJE~1/vt3_POU__WRITE_EL_ENUM.obj
 .comment       0x00000bed       0x2b C:/Users/hurdj00/Desktop/HARTST~1.1/code/Tera_7/__OBJE~1/vt3_POU__WRITE_EL_PRIVATE.obj
 .comment       0x00000c18       0x2b C:/Users/hurdj00/Desktop/HARTST~1.1/code/Tera_7/__OBJE~1/vt3_POU__WRITE_EL_TO_SD.obj
 .comment       0x00000c43       0x2b C:/Users/hurdj00/Desktop/HARTST~1.1/code/Tera_7/__OBJE~1/vt3_POU__WRITE_EL_TO_USB.obj

.debug
 *(.debug)

.line
 *(.line)

.debug_srcinfo
 *(.debug_srcinfo)

.debug_sfnames
 *(.debug_sfnames)

.debug_aranges
 *(.debug_aranges)

.debug_pubnames
 *(.debug_pubnames)

.debug_info
 *(.debug_info .gnu.linkonce.wi.*)

.debug_abbrev
 *(.debug_abbrev)

.debug_line
 *(.debug_line)

.debug_frame    0x00000000      0x220
 *(.debug_frame)
 .debug_frame   0x00000000       0x20 c:/progra~2/codeso~1/source~1/bin/../lib/gcc/arm-none-linux-gnueabi/4.4.1\libgcc.a(_udivsi3.o)
 .debug_frame   0x00000020       0x20 c:/progra~2/codeso~1/source~1/bin/../lib/gcc/arm-none-linux-gnueabi/4.4.1\libgcc.a(_divsi3.o)
 .debug_frame   0x00000040       0x28 c:/progra~2/codeso~1/source~1/bin/../lib/gcc/arm-none-linux-gnueabi/4.4.1\libgcc.a(_fixsfdi.o)
 .debug_frame   0x00000068       0x2c c:/progra~2/codeso~1/source~1/bin/../lib/gcc/arm-none-linux-gnueabi/4.4.1\libgcc.a(_fixdfdi.o)
 .debug_frame   0x00000094       0x2c c:/progra~2/codeso~1/source~1/bin/../lib/gcc/arm-none-linux-gnueabi/4.4.1\libgcc.a(_fixunssfdi.o)
 .debug_frame   0x000000c0       0x2c c:/progra~2/codeso~1/source~1/bin/../lib/gcc/arm-none-linux-gnueabi/4.4.1\libgcc.a(_fixunsdfdi.o)
 .debug_frame   0x000000ec       0x58 c:/progra~2/codeso~1/source~1/bin/../lib/gcc/arm-none-linux-gnueabi/4.4.1\libgcc.a(bpabi.o)
 .debug_frame   0x00000144       0x3c c:/progra~2/codeso~1/source~1/bin/../lib/gcc/arm-none-linux-gnueabi/4.4.1\libgcc.a(_divdi3.o)
 .debug_frame   0x00000180       0x3c c:/progra~2/codeso~1/source~1/bin/../lib/gcc/arm-none-linux-gnueabi/4.4.1\libgcc.a(_udivdi3.o)
 .debug_frame   0x000001bc       0x44 c:\progra~2\codeso~1\source~1\bin\../arm-none-linux-gnueabi/libc/usr/lib/libc_nonshared.a(elf-init.oS)
 .debug_frame   0x00000200       0x20 c:\progra~2\codeso~1\source~1\bin\../arm-none-linux-gnueabi/libc/usr/lib/libc_nonshared.a(aeabi_read_tp.oS)

.debug_str
 *(.debug_str)

.debug_loc
 *(.debug_loc)

.debug_macinfo
 *(.debug_macinfo)

.debug_weaknames
 *(.debug_weaknames)

.debug_funcnames
 *(.debug_funcnames)

.debug_typenames
 *(.debug_typenames)

.debug_varnames
 *(.debug_varnames)

.debug_pubtypes
 *(.debug_pubtypes)

.debug_ranges
 *(.debug_ranges)

.gnu.attributes
 *(.gnu.attributes)

.note.gnu.arm.ident
 *(.note.gnu.arm.ident)

/DISCARD/
 *(.note.GNU-stack)
 *(.gnu_debuglink)
OUTPUT(bin\vt3_app elf32-littlearm)
