(dp1
VC:\u005cUsers\u005churdj00\u005cDesktop\u005cHarstra\u005ccode\u005cTera_7\u005cvt3_code\u005cvt3_POU__INIT_BYTEARRAY_R.h
p2
S'5df33f87a18e04cca24cfbcb60efff6d'
p3
sVC:\u005cUsers\u005churdj00\u005cDesktop\u005cHarstra\u005ccode\u005cTera_7\u005cvt3_code\u005cvt3_POU_string_typedef.h
p4
S'878acfc1d6d7d5859feaefbb3f0f1548'
p5
sVC:\u005cUsers\u005churdj00\u005cDesktop\u005cHarstra\u005ccode\u005cTera_7\u005cvt3_code\u005cvt3_POU__PLC_PRG.h
p6
S'1f9f56124d974ed3d859577727aeeef3'
p7
sVC:\u005cUsers\u005churdj00\u005cDesktop\u005cHartstra_10041_V0.1\u005ccode\u005cTera_7\u005cvt3_code\u005cvt3_POU__GET_POWER_FAIL.h
p8
S'5d4714165fc4987308149061006f41b0'
p9
sVP:\u005cMobile Controls\u005cCUSTOMERS\u005cHartstra\u005cHartstra_10041_V0.1\u005ccode\u005cTera_7\u005cvt3_code\u005cvt3_POU__WRITE_EL_TO_USB.h
p10
S'c0190e515cc820176bb4d4a16e452b73'
p11
sVP:\u005cMobile Controls\u005cCUSTOMERS\u005cHartstra\u005cHartstra_10041_V0.1\u005ccode\u005cTera_7\u005cvt3_code\u005cvt3_POU__home_data.h
p12
S'f81930e729c7b0af526b7cb29a6f9931'
p13
sVC:\u005cUsers\u005churdj00\u005cDesktop\u005cHarstra\u005ccode\u005cTera_7\u005cvt3_code\u005cvt3_POU__doBrightness.c
p14
S'12d5db05feb130a14db3ab7d4b8132f4'
p15
sVC:\u005cUsers\u005churdj00\u005cDesktop\u005cHartstra_10041_V0.1\u005ccode\u005cTera_7\u005cvt3_code\u005cvt3_POU__REBOOT.h
p16
S'8d28313461470d0afae1935a3afce661'
p17
sVP:\u005cMobile Controls\u005cCUSTOMERS\u005cHartstra\u005cHartstra_10041_V0.1\u005ccode\u005cTera_7\u005cvt3_code\u005cvt3_POU__home_data.c
p18
S'95980268ade8ecbf7867ec73bc6b8739'
p19
sVC:\u005cUsers\u005churdj00\u005cDesktop\u005cHarstra\u005ccode\u005cTera_7\u005cvt3_code\u005cvt3_POU__doBrightness.h
p20
S'bd7f0e9533f882db1b8709a3dd583a12'
p21
sVC:\u005cUsers\u005churdj00\u005cDesktop\u005cHartstra_10041_V0.1\u005ccode\u005cTera_7\u005cvt3_code\u005cvt3_IO.h
p22
S'f0b713b9daa93742b2b221371a7e3ad2'
p23
sVP:\u005cMobile Controls\u005cCUSTOMERS\u005cHartstra\u005cHartstra_10041_V0.1\u005ccode\u005cTera_7\u005cvt3_code\u005cvt3_trend_sampling.c
p24
S'4515ec49943d262cae4c828e39dd552d'
p25
sVC:\u005cUsers\u005churdj00\u005cDesktop\u005cHartstra_10041_V0.1\u005ccode\u005cTera_7\u005cvt3_code\u005cvt3_POU__slaveConfigFB_CPU1.h
p26
S'bf7d587fcfb11e681d4bdd8e899303ca'
p27
sVC:\u005cUsers\u005churdj00\u005cDesktop\u005cHarstra\u005ccode\u005cTera_7\u005cvt3_code\u005cvt3_BMP__HartstraLogo1_0_0.h
p28
S'7ed3418e40475b3060ef49c0390dea9a'
p29
sVC:\u005cUsers\u005churdj00\u005cDesktop\u005cHartstra_10041_V0.1\u005ccode\u005cTera_7\u005cvt3_code\u005cvt3_POU__WRITE_EL_ENUM.h
p30
S'e27a3ba0649594da92819eca428dfeda'
p31
sVC:\u005cUsers\u005churdj00\u005cDesktop\u005cHarstra\u005ccode\u005cTera_7\u005cvt3_code\u005cvt3_POU__check_touchcalibration.h
p32
S'69001f57502ab238b2778c495da66807'
p33
sVC:\u005cUsers\u005churdj00\u005cDesktop\u005cHartstra_10041_V0.1\u005ccode\u005cTera_7\u005cvt3_code\u005cvt3_POU__slaveConfigFB_CPU1.c
p34
S'5cf2db8f84b7b3219442fdba2b15f3c3'
p35
sVC:\u005cUsers\u005churdj00\u005cDesktop\u005cHartstra_10041_V0.1\u005ccode\u005cTera_7\u005cvt3_code\u005cvt3_POU__outputs.c
p36
S'510a825f532e885164e5f0e743a04c10'
p37
sVP:\u005cMobile Controls\u005cCUSTOMERS\u005cHartstra\u005cHartstra_10041_V0.1\u005ccode\u005cTera_7\u005cvt3_code\u005cvt3_Event__Setup.h
p38
S'014f6433576b97740c8d658ea2fbf433'
p39
sVC:\u005cUsers\u005churdj00\u005cDesktop\u005cHarstra\u005ccode\u005cTera_7\u005cvt3_code\u005cvt3_POU__INIT_BYTEARRAY_P.h
p40
S'4c8fa5bc6763c725ee8381222d24a28c'
p41
sVP:\u005cMobile Controls\u005cCUSTOMERS\u005cHartstra\u005cHartstra_10041_V0.1\u005ccode\u005cTera_7\u005cvt3_code\u005cvt3_Event__Setup.c
p42
S'412a379f50c6c66d305376cd5272c8b7'
p43
sVC:\u005cUsers\u005churdj00\u005cDesktop\u005cHartstra_10041_V0.1\u005ccode\u005cTera_7\u005cvt3_code\u005cvt3_POU_string_typedef.h
p44
S'878acfc1d6d7d5859feaefbb3f0f1548'
p45
sVC:\u005cUsers\u005churdj00\u005cDesktop\u005cHartstra_10041_V0.1\u005ccode\u005cTera_7\u005cvt3_code\u005cvt3_init_persistent_p_array.c
p46
S'41a674ad1e911293069a51e2a10ced28'
p47
sVP:\u005cMobile Controls\u005cCUSTOMERS\u005cHartstra\u005cHartstra_10041_V0.1\u005ccode\u005cTera_7\u005cvt3_code\u005cvt3_BMP__GrnButtonStyle1_0_0.h
p48
S'26de596f5675c33fb5b5239574439e2d'
p49
sVC:\u005cUsers\u005churdj00\u005cDesktop\u005cHartstra_10041_V0.1\u005ccode\u005cTera_7\u005cvt3_code\u005cvt3_POU__umountUSB.h
p50
S'0a7a7c4771e3c92265bd5c264629cb7c'
p51
sVC:\u005cUsers\u005churdj00\u005cDesktop\u005cHartstra_10041_V0.1\u005ccode\u005cTera_7\u005cvt3_code\u005cvt3_POU__iocore_data.c
p52
S'e22bd8868ad8f87fdab2c083a14e38e3'
p53
sVC:\u005cUsers\u005churdj00\u005cDesktop\u005cHartstra_10041_V0.1\u005ccode\u005cTera_7\u005cvt3_code\u005cvt3_POU__iocore_data.h
p54
S'1343d4a622945dc0ed20745d5f00732e'
p55
sVP:\u005cMobile Controls\u005cCUSTOMERS\u005cHartstra\u005cHartstra_10041_V0.1\u005ccode\u005cTera_7\u005cvt3_code\u005cvt3_POU__ARR_BYTE_version.h
p56
S'd47de601d5de58432479f1de0cde1c82'
p57
sVP:\u005cMobile Controls\u005cCUSTOMERS\u005cHartstra\u005cHartstra_10041_V0.1\u005ccode\u005cTera_7\u005cvt3_code\u005cvt3_fonts.h
p58
S'2d4cc764408dc265a605b94c365b1284'
p59
sVP:\u005cMobile Controls\u005cCUSTOMERS\u005cHartstra\u005cHartstra_10041_V0.1\u005ccode\u005cTera_7\u005cvt3_code\u005cvt3_fonts.c
p60
S'59e544d226ae179dd444bd1c6c851d7e'
p61
sVP:\u005cMobile Controls\u005cCUSTOMERS\u005cHartstra\u005cHartstra_10041_V0.1\u005ccode\u005cTera_7\u005cvt3_code\u005cvt3_POU__interpol.h
p62
S'd692c1ce268a9e801aac9576ba8dcdff'
p63
sVP:\u005cMobile Controls\u005cCUSTOMERS\u005cHartstra\u005cHartstra_10041_V0.1\u005ccode\u005cTera_7\u005cvt3_code\u005cvt3_BMP__HartstraLogo2_0_0.h
p64
S'd4654c783b6b99309eb0c6a7ea13d6d8'
p65
sVP:\u005cMobile Controls\u005cCUSTOMERS\u005cHartstra\u005cHartstra_10041_V0.1\u005ccode\u005cTera_7\u005cvt3_code\u005cvt3_POU__iocore_data.c
p66
S'e22bd8868ad8f87fdab2c083a14e38e3'
p67
sVC:\u005cUsers\u005churdj00\u005cDesktop\u005cHartstra_10041_V0.1\u005ccode\u005cTera_7\u005cvt3_code\u005cvt3_slaves.c
p68
S'1d50fb0927b3a06b6df02ef6f2ed16ab'
p69
sVC:\u005cUsers\u005churdj00\u005cDesktop\u005cHarstra\u005ccode\u005cTera_7\u005cvt3_code\u005cvt3_POU__umountSD.h
p70
S'c78a8f025553f187d3d66c99fca1af75'
p71
sVC:\u005cUsers\u005churdj00\u005cDesktop\u005cHartstra_10041_V0.1\u005ccode\u005cTera_7\u005cvt3_code\u005cvt3_POU__INIT_BYTEARRAY_P.h
p72
S'4c8fa5bc6763c725ee8381222d24a28c'
p73
sVP:\u005cMobile Controls\u005cCUSTOMERS\u005cHartstra\u005cHartstra_10041_V0.1\u005ccode\u005cTera_7\u005cvt3_code\u005cvt3_images.h
p74
S'da3920d825848d82e66ab231ae998a99'
p75
sVC:\u005cUsers\u005churdj00\u005cDesktop\u005cHartstra_10041_V0.1\u005ccode\u005cTera_7\u005cvt3_code\u005cvt3_Disp__Camera.h
p76
S'eccd4b933efc505b8b9b483a1515e7fa'
p77
sVC:\u005cUsers\u005churdj00\u005cDesktop\u005cHartstra_10041_V0.1\u005ccode\u005cTera_7\u005cvt3_code\u005cvt3_POU__task100.h
p78
S'3fe5ad71eaf99f37093e43adb00712c7'
p79
sVP:\u005cMobile Controls\u005cCUSTOMERS\u005cHartstra\u005cHartstra_10041_V0.1\u005ccode\u005cTera_7\u005cvt3_code\u005cvt3_POU__mountSD.h
p80
S'72dff1ea27086214a335451a0622d46c'
p81
sVC:\u005cUsers\u005churdj00\u005cDesktop\u005cHartstra_10041_V0.1\u005ccode\u005cTera_7\u005cvt3_code\u005cvt3_Disp__Camera.c
p82
S'e0b43fd972085d59e8b2f1f6af976568'
p83
sVC:\u005cUsers\u005churdj00\u005cDesktop\u005cHartstra_10041_V0.1\u005ccode\u005cTera_7\u005cvt3_code\u005cvt3_POU__umountSD.h
p84
S'c78a8f025553f187d3d66c99fca1af75'
p85
sVC:\u005cUsers\u005churdj00\u005cDesktop\u005cHartstra_10041_V0.1\u005ccode\u005cTera_7\u005cvt3_code\u005cvt3_init_persistent_p_array.h
p86
S'0af64c3cc4888d6473556f273bc1f64e'
p87
sVC:\u005cUsers\u005churdj00\u005cDesktop\u005cHartstra_10041_V0.1\u005ccode\u005cTera_7\u005cvt3_code\u005cvt3_POU__assignIO.c
p88
S'c3ca1e9b5fbebb15365d8e9e96db2439'
p89
sVC:\u005cUsers\u005churdj00\u005cDesktop\u005cHartstra_10041_V0.1\u005ccode\u005cTera_7\u005cvt3_code\u005cvt3_POU__assignIO.h
p90
S'b674e5e7034098ea0140e96fd8ebd691'
p91
sVP:\u005cMobile Controls\u005cCUSTOMERS\u005cHartstra\u005cHartstra_10041_V0.1\u005ccode\u005cTera_7\u005cvt3_code\u005cvt3_POU__mountUSB.h
p92
S'4b9695cd4c7ab715a8531a6aeb27e894'
p93
sVC:\u005cUsers\u005churdj00\u005cDesktop\u005cHarstra\u005ccode\u005cTera_7\u005cvt3_code\u005cvt3_POU__umountUSB.h
p94
S'0a7a7c4771e3c92265bd5c264629cb7c'
p95
sVP:\u005cMobile Controls\u005cCUSTOMERS\u005cHartstra\u005cHartstra_10041_V0.1\u005ccode\u005cTera_7\u005cvt3_code\u005cvt3_POU__INIT_BYTEARRAY_P.h
p96
S'4c8fa5bc6763c725ee8381222d24a28c'
p97
sVC:\u005cUsers\u005churdj00\u005cDesktop\u005cHartstra_10041_V0.1\u005ccode\u005cTera_7\u005cvt3_code\u005cvt3_POU__doBrightness.h
p98
S'bd7f0e9533f882db1b8709a3dd583a12'
p99
sVC:\u005cUsers\u005churdj00\u005cDesktop\u005cHartstra_10041_V0.1\u005ccode\u005cTera_7\u005cvt3_code\u005cvt3_POU__doBrightness.c
p100
S'12d5db05feb130a14db3ab7d4b8132f4'
p101
sVP:\u005cMobile Controls\u005cCUSTOMERS\u005cHartstra\u005cHartstra_10041_V0.1\u005ccode\u005cTera_7\u005cvt3_code\u005cvt3_POU_common.h
p102
S'209d6507df0c407739686d04f8f9888d'
p103
sVC:\u005cUsers\u005churdj00\u005cDesktop\u005cHartstra_10041_V0.1\u005ccode\u005cTera_7\u005cvt3_code\u005cvt3_POU__global_data.c
p104
S'b5c00671f15d63f6dbb69735e918e056'
p105
sVC:\u005cUsers\u005churdj00\u005cDesktop\u005cHartstra_10041_V0.1\u005ccode\u005cTera_7\u005cvt3_code\u005cvt3_POU.c
p106
S'e45f19b1caf1fd87ed8b9c0a5e283751'
p107
sVC:\u005cUsers\u005churdj00\u005cDesktop\u005cHartstra_10041_V0.1\u005ccode\u005cTera_7\u005cvt3_code\u005cvt3_POU__global_data.h
p108
S'fb7dde5f96d993cb8a1fc78dba76af73'
p109
sVC:\u005cUsers\u005churdj00\u005cDesktop\u005cHartstra_10041_V0.1\u005ccode\u005cTera_7\u005cvt3_code\u005cvt3_POU.h
p110
S'a6579c7b36ae06babe016f801ddd377a'
p111
sVC:\u005cUsers\u005churdj00\u005cDesktop\u005cHarstra\u005ccode\u005cTera_7\u005cvt3_code\u005cvt3_images.h
p112
S'da3920d825848d82e66ab231ae998a99'
p113
sVP:\u005cMobile Controls\u005cCUSTOMERS\u005cHartstra\u005cHartstra_10041_V0.1\u005ccode\u005cTera_7\u005cvt3_code\u005cvt3_BMP__BluButtonStyle1_0_0.h
p114
S'1ef78b26f668a658b2f7b009f54003dc'
p115
sVP:\u005cMobile Controls\u005cCUSTOMERS\u005cHartstra\u005cHartstra_10041_V0.1\u005ccode\u005cTera_7\u005cvt3_code\u005cvt3_Event__ScreenFrame.h
p116
S'b35c8bbc4863ec4ac3ac49f98234be1c'
p117
sVC:\u005cUsers\u005churdj00\u005cDesktop\u005cHarstra\u005ccode\u005cTera_7\u005cvt3_code\u005cvt3_Event__Setup.c
p118
S'412a379f50c6c66d305376cd5272c8b7'
p119
sVC:\u005cUsers\u005churdj00\u005cDesktop\u005cHartstra_10041_V0.1\u005ccode\u005cTera_7\u005cvt3_code\u005cvt3_Disp__Splash.c
p120
S'7201ef9fd1bde156e8b13d64deabd492'
p121
sVP:\u005cMobile Controls\u005cCUSTOMERS\u005cHartstra\u005cHartstra_10041_V0.1\u005ccode\u005cTera_7\u005cvt3_code\u005cvt3_Event__ScreenFrame.c
p122
S'a09ba3c3b436ddf656660d690fe83685'
p123
sVP:\u005cMobile Controls\u005cCUSTOMERS\u005cHartstra\u005cHartstra_10041_V0.1\u005ccode\u005cTera_7\u005cvt3_code\u005cvt3_disp.c
p124
S'9be2266030cbcfe50ba8a28ee66eece7'
p125
sVP:\u005cMobile Controls\u005cCUSTOMERS\u005cHartstra\u005cHartstra_10041_V0.1\u005ccode\u005cTera_7\u005cvt3_code\u005cvt3_Disp__ScreenFrame.h
p126
S'0d7e10ab595c0247711669e994613b79'
p127
sVP:\u005cMobile Controls\u005cCUSTOMERS\u005cHartstra\u005cHartstra_10041_V0.1\u005ccode\u005cTera_7\u005cvt3_code\u005cvt3_Disp__ScreenFrame.c
p128
S'95d24bc69e130e5b5eb0105c9e38febe'
p129
sVP:\u005cMobile Controls\u005cCUSTOMERS\u005cHartstra\u005cHartstra_10041_V0.1\u005ccode\u005cTera_7\u005cvt3_code\u005cvt3_disp.h
p130
S'303a36c83bab1b63098f5bb344c215e8'
p131
sVC:\u005cUsers\u005churdj00\u005cDesktop\u005cHartstra_10041_V0.1\u005ccode\u005cTera_7\u005cvt3_code\u005cvt3_POU__lcdSetBlank.h
p132
S'ddfdc2e8d7ed09c43e372876a89df454'
p133
sVC:\u005cUsers\u005churdj00\u005cDesktop\u005cHarstra\u005ccode\u005cTera_7\u005cvt3_code\u005cvt3_POU__splash_data.c
p134
S'831367c3729466e584ad1a15a8c0b6dc'
p135
sVC:\u005cUsers\u005churdj00\u005cDesktop\u005cHarstra\u005ccode\u005cTera_7\u005cvt3_code\u005cvt3_POU__splash_data.h
p136
S'06a56c5d97951cdf3f7735cdc55434aa'
p137
sVC:\u005cUsers\u005churdj00\u005cDesktop\u005cHartstra_10041_V0.1\u005ccode\u005cTera_7\u005cvt3_code\u005cvt3_POU__interpol.h
p138
S'd692c1ce268a9e801aac9576ba8dcdff'
p139
sVC:\u005cUsers\u005churdj00\u005cDesktop\u005cHartstra_10041_V0.1\u005ccode\u005cTera_7\u005cvt3_code\u005cvt3_POU__get_prj_version.h
p140
S'a49e34ca22601f3771b1a95024c0c979'
p141
sVC:\u005cUsers\u005churdj00\u005cDesktop\u005cHartstra_10041_V0.1\u005ccode\u005cTera_7\u005cvt3_code\u005cvt3_BMP__YlwButtonStyle1_0_0.h
p142
S'7c954ba97a5eaef59669f9bd93a13a88'
p143
sVC:\u005cUsers\u005churdj00\u005cDesktop\u005cHarstra\u005ccode\u005cTera_7\u005cvt3_code\u005cvt3_Disp__Setup.h
p144
S'55da64aefb4d80bdefbe4b3c16f7f52f'
p145
sVC:\u005cUsers\u005churdj00\u005cDesktop\u005cHartstra_10041_V0.1\u005ccode\u005cTera_7\u005cvt3_code\u005cvt3_POU__interpol.c
p146
S'f6e11149bc04c40fe5fcaf31b1231cbf'
p147
sVC:\u005cUsers\u005churdj00\u005cDesktop\u005cHartstra_10041_V0.1\u005ccode\u005cTera_7\u005cvt3_code\u005cvt3_CAN.h
p148
S'd576274456b16a2977d33b5db3a28e44'
p149
sVC:\u005cUsers\u005churdj00\u005cDesktop\u005cHarstra\u005ccode\u005cTera_7\u005cvt3_code\u005cvt3_POU__slaveConfigFB_CPU1.h
p150
S'bf7d587fcfb11e681d4bdd8e899303ca'
p151
sVP:\u005cMobile Controls\u005cCUSTOMERS\u005cHartstra\u005cHartstra_10041_V0.1\u005ccode\u005cTera_7\u005cvt3_code\u005cvt3_POU__global_data.h
p152
S'fb7dde5f96d993cb8a1fc78dba76af73'
p153
sVC:\u005cUsers\u005churdj00\u005cDesktop\u005cHarstra\u005ccode\u005cTera_7\u005cvt3_code\u005cvt3_POU__slaveConfigFB_CPU1.c
p154
S'5cf2db8f84b7b3219442fdba2b15f3c3'
p155
sVC:\u005cUsers\u005churdj00\u005cDesktop\u005cHartstra_10041_V0.1\u005ccode\u005cTera_7\u005cvt3_code\u005cvt3_CAN.c
p156
S'51204dc24c4364573301fe86f6f67bea'
p157
sVP:\u005cMobile Controls\u005cCUSTOMERS\u005cHartstra\u005cHartstra_10041_V0.1\u005ccode\u005cTera_7\u005cvt3_code\u005cvt3_POU__global_data.c
p158
S'b5c00671f15d63f6dbb69735e918e056'
p159
sVC:\u005cUsers\u005churdj00\u005cDesktop\u005cHarstra\u005ccode\u005cTera_7\u005cvt3_code\u005cvt3_POU__BYTE_TO_ASCII.h
p160
S'38cb083d133586d5c3ede0a2bded46b7'
p161
sVP:\u005cMobile Controls\u005cCUSTOMERS\u005cHartstra\u005cHartstra_10041_V0.1\u005ccode\u005cTera_7\u005cvt3_code\u005cvt3_CAN_common.h
p162
S'5a7dcad396f420054a22da23ceedb260'
p163
sVP:\u005cMobile Controls\u005cCUSTOMERS\u005cHartstra\u005cHartstra_10041_V0.1\u005ccode\u005cTera_7\u005cvt3_code\u005cvt3_CAN_common.c
p164
S'4a4524c4eb24e82ed6e7a58206305fed'
p165
sVC:\u005cUsers\u005churdj00\u005cDesktop\u005cHarstra\u005ccode\u005cTera_7\u005cvt3_code\u005cvt3_POU__task100.c
p166
S'2bf86ac7fe13b29e2f2cd90d23658fdf'
p167
sVC:\u005cUsers\u005churdj00\u005cDesktop\u005cHartstra_10041_V0.1\u005ccode\u005cTera_7\u005cvt3_code\u005cvt3_POU__check_touchcalibration.h
p168
S'69001f57502ab238b2778c495da66807'
p169
sVC:\u005cUsers\u005churdj00\u005cDesktop\u005cHarstra\u005ccode\u005cTera_7\u005cvt3_code\u005cvt3_POU__task100.h
p170
S'3fe5ad71eaf99f37093e43adb00712c7'
p171
sVP:\u005cMobile Controls\u005cCUSTOMERS\u005cHartstra\u005cHartstra_10041_V0.1\u005ccode\u005cTera_7\u005cvt3_code\u005cvt3_POU__WRITE_EL_TO_SD.h
p172
S'5a3ec85ee871bb38535cb8f3e9515e31'
p173
sVC:\u005cUsers\u005churdj00\u005cDesktop\u005cHartstra_10041_V0.1\u005ccode\u005cTera_7\u005cvt3_code\u005cvt3_lang.h
p174
S'a8721b58f9ff16d6cdbdf9f2df45f9fd'
p175
sVP:\u005cMobile Controls\u005cCUSTOMERS\u005cHartstra\u005cHartstra_10041_V0.1\u005ccode\u005cTera_7\u005cvt3_code\u005cvt3_init_persistent_f_array.c
p176
S'd2643a61ff12c08922325f5a25135faa'
p177
sVP:\u005cMobile Controls\u005cCUSTOMERS\u005cHartstra\u005cHartstra_10041_V0.1\u005ccode\u005cTera_7\u005cvt3_code\u005cvt3_Event__Splash.h
p178
S'82539d5311c38589470c28d0bd1f89a1'
p179
sVP:\u005cMobile Controls\u005cCUSTOMERS\u005cHartstra\u005cHartstra_10041_V0.1\u005ccode\u005cTera_7\u005cvt3_code\u005cvt3_Event__Splash.c
p180
S'2fcaccd52543a413b365ddb71cec5fe2'
p181
sVC:\u005cUsers\u005churdj00\u005cDesktop\u005cHarstra\u005ccode\u005cTera_7\u005cvt3_code\u005cvt3_lang.h
p182
S'a8721b58f9ff16d6cdbdf9f2df45f9fd'
p183
sVC:\u005cUsers\u005churdj00\u005cDesktop\u005cHartstra_10041_V0.1\u005ccode\u005cTera_7\u005cvt3_code\u005cvt3_lang.c
p184
S'806ccd2e75a99d291663284e9ab25fa2'
p185
sVC:\u005cUsers\u005churdj00\u005cDesktop\u005cHartstra_10041_V0.1\u005ccode\u005cTera_7\u005cvt3_code\u005cvt3_POU__WRITE_EL_TO_USB.h
p186
S'c0190e515cc820176bb4d4a16e452b73'
p187
sVC:\u005cUsers\u005churdj00\u005cDesktop\u005cHarstra\u005ccode\u005cTera_7\u005cvt3_code\u005cvt3_Disp__Camera.h
p188
S'eccd4b933efc505b8b9b483a1515e7fa'
p189
sVC:\u005cUsers\u005churdj00\u005cDesktop\u005cHarstra\u005ccode\u005cTera_7\u005cvt3_code\u005cvt3_Disp__Camera.c
p190
S'e0b43fd972085d59e8b2f1f6af976568'
p191
sVC:\u005cUsers\u005churdj00\u005cDesktop\u005cHarstra\u005ccode\u005cTera_7\u005cvt3_code\u005cvt3_BMP__GrnButtonStyle1_0_0.h
p192
S'26de596f5675c33fb5b5239574439e2d'
p193
sVC:\u005cUsers\u005churdj00\u005cDesktop\u005cHartstra_10041_V0.1\u005ccode\u005cTera_7\u005cvt3_code\u005cvt3_POU__splash_data.h
p194
S'06a56c5d97951cdf3f7735cdc55434aa'
p195
sVC:\u005cUsers\u005churdj00\u005cDesktop\u005cHarstra\u005ccode\u005cTera_7\u005cvt3_code\u005cvt3_POU__outputs.c
p196
S'510a825f532e885164e5f0e743a04c10'
p197
sVC:\u005cUsers\u005churdj00\u005cDesktop\u005cHartstra_10041_V0.1\u005ccode\u005cTera_7\u005cvt3_code\u005cvt3_POU__splash_data.c
p198
S'831367c3729466e584ad1a15a8c0b6dc'
p199
sVC:\u005cUsers\u005churdj00\u005cDesktop\u005cHarstra\u005ccode\u005cTera_7\u005cvt3_code\u005cvt3_POU__outputs.h
p200
S'417e291da49adbc702c64a1091396c6b'
p201
sVP:\u005cMobile Controls\u005cCUSTOMERS\u005cHartstra\u005cHartstra_10041_V0.1\u005ccode\u005cTera_7\u005cvt3_code\u005cvt3_POU__INIT_BYTEARRAY_R.h
p202
S'5df33f87a18e04cca24cfbcb60efff6d'
p203
sVP:\u005cMobile Controls\u005cCUSTOMERS\u005cHartstra\u005cHartstra_10041_V0.1\u005ccode\u005cTera_7\u005cvt3_code\u005cvt3_POU__slaveConfig.h
p204
S'bf079b10366ee781141b3c95541c11ca'
p205
sVP:\u005cMobile Controls\u005cCUSTOMERS\u005cHartstra\u005cHartstra_10041_V0.1\u005ccode\u005cTera_7\u005cvt3_code\u005cvt3_POU__slaveConfigFB_CPU0.h
p206
S'7e0b23c90bfcfdcdd6f178f4dbfe6c66'
p207
sVP:\u005cMobile Controls\u005cCUSTOMERS\u005cHartstra\u005cHartstra_10041_V0.1\u005ccode\u005cTera_7\u005cvt3_code\u005cvt3_POU__slaveConfig.c
p208
S'250282194da6b1fd2d12a0260069806d'
p209
sVP:\u005cMobile Controls\u005cCUSTOMERS\u005cHartstra\u005cHartstra_10041_V0.1\u005ccode\u005cTera_7\u005cvt3_code\u005cvt3_POU__slaveConfigFB_CPU0.c
p210
S'8e10f799a9bff5663a17d9491a8fe8b6'
p211
sVC:\u005cUsers\u005churdj00\u005cDesktop\u005cHarstra\u005ccode\u005cTera_7\u005cvt3_code\u005cvt3_POU__setup_data.h
p212
S'f5c57c650f37a51c317c0b7aae640654'
p213
sVC:\u005cUsers\u005churdj00\u005cDesktop\u005cHarstra\u005ccode\u005cTera_7\u005cvt3_code\u005cvt3_POU__setup_data.c
p214
S'5ec975ebafb6a0aae91ab3812cd81c7d'
p215
sVC:\u005cUsers\u005churdj00\u005cDesktop\u005cHarstra\u005ccode\u005cTera_7\u005cvt3_code\u005cvt3_POU__assignIO.c
p216
S'c3ca1e9b5fbebb15365d8e9e96db2439'
p217
sVP:\u005cMobile Controls\u005cCUSTOMERS\u005cHartstra\u005cHartstra_10041_V0.1\u005ccode\u005cTera_7\u005cvt3_code\u005cvt3_POU__task100.h
p218
S'3fe5ad71eaf99f37093e43adb00712c7'
p219
sVC:\u005cUsers\u005churdj00\u005cDesktop\u005cHarstra\u005ccode\u005cTera_7\u005cvt3_code\u005cvt3_BMP__BluButtonStyle1_0_0.h
p220
S'1ef78b26f668a658b2f7b009f54003dc'
p221
sVC:\u005cUsers\u005churdj00\u005cDesktop\u005cHarstra\u005ccode\u005cTera_7\u005cvt3_code\u005cvt3_Event__Setup.h
p222
S'014f6433576b97740c8d658ea2fbf433'
p223
sVP:\u005cMobile Controls\u005cCUSTOMERS\u005cHartstra\u005cHartstra_10041_V0.1\u005ccode\u005cTera_7\u005cvt3_code\u005cvt3_POU__task100.c
p224
S'2bf86ac7fe13b29e2f2cd90d23658fdf'
p225
sVC:\u005cUsers\u005churdj00\u005cDesktop\u005cHarstra\u005ccode\u005cTera_7\u005cvt3_code\u005cvt3_POU__assignIO.h
p226
S'b674e5e7034098ea0140e96fd8ebd691'
p227
sVC:\u005cUsers\u005churdj00\u005cDesktop\u005cHartstra_10041_V0.1\u005ccode\u005cTera_7\u005cvt3_code\u005cvt3_POU__setup_data.h
p228
S'f5c57c650f37a51c317c0b7aae640654'
p229
sVC:\u005cUsers\u005churdj00\u005cDesktop\u005cHartstra_10041_V0.1\u005ccode\u005cTera_7\u005cvt3_code\u005cvt3_POU__setup_data.c
p230
S'5ec975ebafb6a0aae91ab3812cd81c7d'
p231
sVP:\u005cMobile Controls\u005cCUSTOMERS\u005cHartstra\u005cHartstra_10041_V0.1\u005ccode\u005cTera_7\u005cvt3_code\u005cvt3_POU_common.c
p232
S'0ff28b5c825dbf2ca948890c667b9ada'
p233
sVP:\u005cMobile Controls\u005cCUSTOMERS\u005cHartstra\u005cHartstra_10041_V0.1\u005ccode\u005cTera_7\u005cvt3_code\u005cvt3_POU__WRITE_EL_PRIVATE.h
p234
S'28304ebffb0556ce574c9a70b46bcdcd'
p235
sVC:\u005cUsers\u005churdj00\u005cDesktop\u005cHartstra_10041_V0.1\u005ccode\u005cTera_7\u005cvt3_code\u005cvt3_vars.c
p236
S'574ab7baf509a2321dfea5b895d2c950'
p237
sVC:\u005cUsers\u005churdj00\u005cDesktop\u005cHarstra\u005ccode\u005cTera_7\u005cvt3_code\u005cvt3_init_persistent_r_array.h
p238
S'6e2e768d269693560e62c805fccc7da5'
p239
sVC:\u005cUsers\u005churdj00\u005cDesktop\u005cHartstra_10041_V0.1\u005ccode\u005cTera_7\u005cvt3_code\u005cvt3_vars.h
p240
S'ec1e146c415582fe964de321abc1e210'
p241
sVC:\u005cUsers\u005churdj00\u005cDesktop\u005cHarstra\u005ccode\u005cTera_7\u005cvt3_code\u005cvt3_init_persistent_r_array.c
p242
S'68ed6d0171041046035d972b823fe6bf'
p243
sVC:\u005cUsers\u005churdj00\u005cDesktop\u005cHartstra_10041_V0.1\u005ccode\u005cTera_7\u005cvt3_code\u005cvt3_palette.c
p244
S'e23c9e47ad38f1cdb9528ab6f35fd755'
p245
sVC:\u005cUsers\u005churdj00\u005cDesktop\u005cHarstra\u005ccode\u005cTera_7\u005cvt3_code\u005cvt3_slaves.c
p246
S'1d50fb0927b3a06b6df02ef6f2ed16ab'
p247
sVC:\u005cUsers\u005churdj00\u005cDesktop\u005cHartstra_10041_V0.1\u005ccode\u005cTera_7\u005cvt3_code\u005cvt3_palette.h
p248
S'7c7e08576438bd557f3c8a16226dc059'
p249
sVC:\u005cUsers\u005churdj00\u005cDesktop\u005cHarstra\u005ccode\u005cTera_7\u005cvt3_code\u005cvt3_Event__Home.h
p250
S'af58b1b55414848c66f8aebadb46b81e'
p251
sVC:\u005cUsers\u005churdj00\u005cDesktop\u005cHarstra\u005ccode\u005cTera_7\u005cvt3_code\u005cvt3_Event__Home.c
p252
S'ae4e5e819915071ea266684ea6bf4cba'
p253
sVP:\u005cMobile Controls\u005cCUSTOMERS\u005cHartstra\u005cHartstra_10041_V0.1\u005ccode\u005cTera_7\u005cvt3_code\u005cvt3_Disp__Setup.c
p254
S'3edae3bc5cf3a68290d5944684eb42e7'
p255
sVP:\u005cMobile Controls\u005cCUSTOMERS\u005cHartstra\u005cHartstra_10041_V0.1\u005ccode\u005cTera_7\u005cvt3_code\u005cvt3_POU__WRITE_EL.h
p256
S'1a5c19894715ccdebdfbdcd51a8c94f0'
p257
sVP:\u005cMobile Controls\u005cCUSTOMERS\u005cHartstra\u005cHartstra_10041_V0.1\u005ccode\u005cTera_7\u005cvt3_code\u005cvt3_Disp__Setup.h
p258
S'55da64aefb4d80bdefbe4b3c16f7f52f'
p259
sVC:\u005cUsers\u005churdj00\u005cDesktop\u005cHarstra\u005ccode\u005cTera_7\u005cvt3_code\u005cvt3_Event__Camera.h
p260
S'4d576ab64fe499422d846239e624add9'
p261
sVC:\u005cUsers\u005churdj00\u005cDesktop\u005cHarstra\u005ccode\u005cTera_7\u005cvt3_code\u005cvt3_Event__Camera.c
p262
S'8ebcdab00e93d5af7e34fa357f31007b'
p263
sVC:\u005cUsers\u005churdj00\u005cDesktop\u005cHartstra_10041_V0.1\u005ccode\u005cTera_7\u005cvt3_code\u005cvt3_POU__WRITE_EL_TO_SD.h
p264
S'5a3ec85ee871bb38535cb8f3e9515e31'
p265
sVC:\u005cUsers\u005churdj00\u005cDesktop\u005cHartstra_10041_V0.1\u005ccode\u005cTera_7\u005cvt3_code\u005cvt3_POU__WRITE_EL_PRIVATE.h
p266
S'28304ebffb0556ce574c9a70b46bcdcd'
p267
sVC:\u005cUsers\u005churdj00\u005cDesktop\u005cHarstra\u005ccode\u005cTera_7\u005cvt3_code\u005cvt3_POU__mountUSB.h
p268
S'4b9695cd4c7ab715a8531a6aeb27e894'
p269
sVC:\u005cUsers\u005churdj00\u005cDesktop\u005cHarstra\u005ccode\u005cTera_7\u005cvt3_code\u005cvt3_POU__SET_POWER_FAIL_SHUTDOWN.h
p270
S'bc09daf7d5461e1a0ab2cea2e1262bde'
p271
sVC:\u005cUsers\u005churdj00\u005cDesktop\u005cHartstra_10041_V0.1\u005ccode\u005cTera_7\u005cvt3_code\u005cvt3_init_persistent_r_array.h
p272
S'6e2e768d269693560e62c805fccc7da5'
p273
sVC:\u005cUsers\u005churdj00\u005cDesktop\u005cHarstra\u005ccode\u005cTera_7\u005cvt3_code\u005cvt3_POU__INIT_SD_USB.h
p274
S'8edab598163e13617dec6af2402f6946'
p275
sVC:\u005cUsers\u005churdj00\u005cDesktop\u005cHartstra_10041_V0.1\u005ccode\u005cTera_7\u005cvt3_code\u005cvt3_init_persistent_r_array.c
p276
S'68ed6d0171041046035d972b823fe6bf'
p277
sVC:\u005cUsers\u005churdj00\u005cDesktop\u005cHarstra\u005ccode\u005cTera_7\u005cvt3_code\u005cvt3_fonts.h
p278
S'2d4cc764408dc265a605b94c365b1284'
p279
sVC:\u005cUsers\u005churdj00\u005cDesktop\u005cHarstra\u005ccode\u005cTera_7\u005cvt3_code\u005cvt3_fonts.c
p280
S'59e544d226ae179dd444bd1c6c851d7e'
p281
sVC:\u005cUsers\u005churdj00\u005cDesktop\u005cHarstra\u005ccode\u005cTera_7\u005cvt3_code\u005cvt3_POU__REBOOT.h
p282
S'8d28313461470d0afae1935a3afce661'
p283
sVC:\u005cUsers\u005churdj00\u005cDesktop\u005cHarstra\u005ccode\u005cTera_7\u005cvt3_code\u005cvt3_disp_common.h
p284
S'd9682153424ccc066a63b3c40f1bc9eb'
p285
sVC:\u005cUsers\u005churdj00\u005cDesktop\u005cHartstra_10041_V0.1\u005ccode\u005cTera_7\u005cvt3_code\u005cvt3_POU_common.h
p286
S'209d6507df0c407739686d04f8f9888d'
p287
sVC:\u005cUsers\u005churdj00\u005cDesktop\u005cHartstra_10041_V0.1\u005ccode\u005cTera_7\u005cvt3_code\u005cvt3_POU_common.c
p288
S'0ff28b5c825dbf2ca948890c667b9ada'
p289
sVC:\u005cUsers\u005churdj00\u005cDesktop\u005cHartstra_10041_V0.1\u005ccode\u005cTera_7\u005cvt3_code\u005cvt3_POU__ARR_BYTE_version.h
p290
S'd47de601d5de58432479f1de0cde1c82'
p291
sVC:\u005cUsers\u005churdj00\u005cDesktop\u005cHartstra_10041_V0.1\u005ccode\u005cTera_7\u005cvt3_code\u005cvt3_POU__req_touchcalibration.h
p292
S'ca983682e3fdc0f466cefe0b40bae1df'
p293
sVC:\u005cUsers\u005churdj00\u005cDesktop\u005cHartstra_10041_V0.1\u005ccode\u005cTera_7\u005cvt3_code\u005cvt3_Event__Setup.h
p294
S'014f6433576b97740c8d658ea2fbf433'
p295
sVC:\u005cUsers\u005churdj00\u005cDesktop\u005cHartstra_10041_V0.1\u005ccode\u005cTera_7\u005cvt3_code\u005cvt3_Disp__Home.c
p296
S'a5ff78d778ea901a403c003cc5257124'
p297
sVC:\u005cUsers\u005churdj00\u005cDesktop\u005cHartstra_10041_V0.1\u005ccode\u005cTera_7\u005cvt3_code\u005cvt3_Disp__Home.h
p298
S'59715e79f55018318100f517a2342b0e'
p299
sVC:\u005cUsers\u005churdj00\u005cDesktop\u005cHartstra_10041_V0.1\u005ccode\u005cTera_7\u005cvt3_code\u005cvt3_Event__Setup.c
p300
S'412a379f50c6c66d305376cd5272c8b7'
p301
sVP:\u005cMobile Controls\u005cCUSTOMERS\u005cHartstra\u005cHartstra_10041_V0.1\u005ccode\u005cTera_7\u005cvt3_code\u005cvt3_POU__check_touchcalibration.h
p302
S'69001f57502ab238b2778c495da66807'
p303
sVC:\u005cUsers\u005churdj00\u005cDesktop\u005cHarstra\u005ccode\u005cTera_7\u005cvt3_code\u005cvt3_CAN.c
p304
S'51204dc24c4364573301fe86f6f67bea'
p305
sVC:\u005cUsers\u005churdj00\u005cDesktop\u005cHarstra\u005ccode\u005cTera_7\u005cvt3_code\u005cvt3_CAN.h
p306
S'd576274456b16a2977d33b5db3a28e44'
p307
sVC:\u005cUsers\u005churdj00\u005cDesktop\u005cHarstra\u005ccode\u005cTera_7\u005cvt3_code\u005cvt3_POU__home_data.h
p308
S'f81930e729c7b0af526b7cb29a6f9931'
p309
sVC:\u005cUsers\u005churdj00\u005cDesktop\u005cHarstra\u005ccode\u005cTera_7\u005cvt3_code\u005cvt3_Event__ScreenFrame.h
p310
S'b35c8bbc4863ec4ac3ac49f98234be1c'
p311
sVC:\u005cUsers\u005churdj00\u005cDesktop\u005cHarstra\u005ccode\u005cTera_7\u005cvt3_code\u005cvt3_POU__home_data.c
p312
S'95980268ade8ecbf7867ec73bc6b8739'
p313
sVC:\u005cUsers\u005churdj00\u005cDesktop\u005cHarstra\u005ccode\u005cTera_7\u005cvt3_code\u005cvt3_Event__ScreenFrame.c
p314
S'a09ba3c3b436ddf656660d690fe83685'
p315
sVP:\u005cMobile Controls\u005cCUSTOMERS\u005cHartstra\u005cHartstra_10041_V0.1\u005ccode\u005cTera_7\u005cvt3_code\u005cvt3_vars.c
p316
S'574ab7baf509a2321dfea5b895d2c950'
p317
sVP:\u005cMobile Controls\u005cCUSTOMERS\u005cHartstra\u005cHartstra_10041_V0.1\u005ccode\u005cTera_7\u005cvt3_code\u005cvt3_vars.h
p318
S'ec1e146c415582fe964de321abc1e210'
p319
sVP:\u005cMobile Controls\u005cCUSTOMERS\u005cHartstra\u005cHartstra_10041_V0.1\u005ccode\u005cTera_7\u005cvt3_code\u005cvt3_CAN.h
p320
S'd576274456b16a2977d33b5db3a28e44'
p321
sVC:\u005cUsers\u005churdj00\u005cDesktop\u005cHartstra_10041_V0.1\u005ccode\u005cTera_7\u005cvt3_code\u005cvt3_POU__usbUpdate.h
p322
S'3f5e759a10e3069777771cdfe1bf7230'
p323
sVP:\u005cMobile Controls\u005cCUSTOMERS\u005cHartstra\u005cHartstra_10041_V0.1\u005ccode\u005cTera_7\u005cvt3_code\u005cvt3_BMP__GryButtonStyle1_0_0.h
p324
S'1399adba65e3b4e78ba959714327f2c9'
p325
sVC:\u005cUsers\u005churdj00\u005cDesktop\u005cHarstra\u005ccode\u005cTera_7\u005cvt3_code\u005cvt3_init_persistent_f_array.h
p326
S'4961bac531fd7b438c30560dbf5950df'
p327
sVC:\u005cUsers\u005churdj00\u005cDesktop\u005cHartstra_10041_V0.1\u005ccode\u005cTera_7\u005cvt3_code\u005cvt3_POU__slaveConfigFB_CPU0.c
p328
S'8e10f799a9bff5663a17d9491a8fe8b6'
p329
sVC:\u005cUsers\u005churdj00\u005cDesktop\u005cHarstra\u005ccode\u005cTera_7\u005cvt3_code\u005cvt3_init_persistent_f_array.c
p330
S'd2643a61ff12c08922325f5a25135faa'
p331
sVC:\u005cUsers\u005churdj00\u005cDesktop\u005cHartstra_10041_V0.1\u005ccode\u005cTera_7\u005cvt3_code\u005cvt3_POU__usbUpdate.c
p332
S'b3857117872991ad521d98f50daac406'
p333
sVP:\u005cMobile Controls\u005cCUSTOMERS\u005cHartstra\u005cHartstra_10041_V0.1\u005ccode\u005cTera_7\u005cvt3_code\u005cvt3_CAN.c
p334
S'51204dc24c4364573301fe86f6f67bea'
p335
sVC:\u005cUsers\u005churdj00\u005cDesktop\u005cHartstra_10041_V0.1\u005ccode\u005cTera_7\u005cvt3_code\u005cvt3_POU__slaveConfigFB_CPU0.h
p336
S'7e0b23c90bfcfdcdd6f178f4dbfe6c66'
p337
sVC:\u005cUsers\u005churdj00\u005cDesktop\u005cHarstra\u005ccode\u005cTera_7\u005cvt3_code\u005cvt3_POU__WRITE_EL.h
p338
S'1a5c19894715ccdebdfbdcd51a8c94f0'
p339
sVC:\u005cUsers\u005churdj00\u005cDesktop\u005cHarstra\u005ccode\u005cTera_7\u005cvt3_code\u005cvt3_POU__iocore_data.c
p340
S'e22bd8868ad8f87fdab2c083a14e38e3'
p341
sVC:\u005cUsers\u005churdj00\u005cDesktop\u005cHarstra\u005ccode\u005cTera_7\u005cvt3_code\u005cvt3_POU_common.c
p342
S'0ff28b5c825dbf2ca948890c667b9ada'
p343
sVC:\u005cUsers\u005churdj00\u005cDesktop\u005cHarstra\u005ccode\u005cTera_7\u005cvt3_code\u005cvt3_disp.c
p344
S'9be2266030cbcfe50ba8a28ee66eece7'
p345
sVC:\u005cUsers\u005churdj00\u005cDesktop\u005cHarstra\u005ccode\u005cTera_7\u005cvt3_code\u005cvt3_POU__iocore_data.h
p346
S'1343d4a622945dc0ed20745d5f00732e'
p347
sVC:\u005cUsers\u005churdj00\u005cDesktop\u005cHarstra\u005ccode\u005cTera_7\u005cvt3_code\u005cvt3_disp.h
p348
S'303a36c83bab1b63098f5bb344c215e8'
p349
sVC:\u005cUsers\u005churdj00\u005cDesktop\u005cHarstra\u005ccode\u005cTera_7\u005cvt3_code\u005cvt3_POU_common.h
p350
S'209d6507df0c407739686d04f8f9888d'
p351
sVP:\u005cMobile Controls\u005cCUSTOMERS\u005cHartstra\u005cHartstra_10041_V0.1\u005ccode\u005cTera_7\u005cvt3_code\u005cvt3_POU__INIT_SD_USB.h
p352
S'8edab598163e13617dec6af2402f6946'
p353
sVP:\u005cMobile Controls\u005cCUSTOMERS\u005cHartstra\u005cHartstra_10041_V0.1\u005ccode\u005cTera_7\u005cvt3_code\u005cvt3_POU__SHUTDOWN.h
p354
S'0d13935e77aae17b2d8b24d5c226330f'
p355
sVC:\u005cUsers\u005churdj00\u005cDesktop\u005cHartstra_10041_V0.1\u005ccode\u005cTera_7\u005cvt3_code\u005cvt3_POU__BYTE_TO_ASCII.h
p356
S'38cb083d133586d5c3ede0a2bded46b7'
p357
sVC:\u005cUsers\u005churdj00\u005cDesktop\u005cHartstra_10041_V0.1\u005ccode\u005cTera_7\u005cvt3_code\u005cvt3_Disp__ScreenFrame.h
p358
S'0d7e10ab595c0247711669e994613b79'
p359
sVC:\u005cUsers\u005churdj00\u005cDesktop\u005cHartstra_10041_V0.1\u005ccode\u005cTera_7\u005cvt3_code\u005cvt3_Disp__ScreenFrame.c
p360
S'95d24bc69e130e5b5eb0105c9e38febe'
p361
sVC:\u005cUsers\u005churdj00\u005cDesktop\u005cHartstra_10041_V0.1\u005ccode\u005cTera_7\u005cvt3_code\u005cvt3_POU__SHUTDOWN.h
p362
S'0d13935e77aae17b2d8b24d5c226330f'
p363
sVC:\u005cUsers\u005churdj00\u005cDesktop\u005cHarstra\u005ccode\u005cTera_7\u005cvt3_code\u005cvt3_Disp__Setup.c
p364
S'3edae3bc5cf3a68290d5944684eb42e7'
p365
sVP:\u005cMobile Controls\u005cCUSTOMERS\u005cHartstra\u005cHartstra_10041_V0.1\u005ccode\u005cTera_7\u005cvt3_code\u005cvt3_CAN__CanInterface.h
p366
S'4ba8c93f1ea3ac6c6208bc8f501c7287'
p367
sVP:\u005cMobile Controls\u005cCUSTOMERS\u005cHartstra\u005cHartstra_10041_V0.1\u005ccode\u005cTera_7\u005cvt3_code\u005cvt3_CAN__CanInterface.c
p368
S'6af21f4d4e900d9c99c2bf46fe881831'
p369
sVP:\u005cMobile Controls\u005cCUSTOMERS\u005cHartstra\u005cHartstra_10041_V0.1\u005ccode\u005cTera_7\u005cvt3_code\u005cvt3_POU__REBOOT.h
p370
S'8d28313461470d0afae1935a3afce661'
p371
sVC:\u005cUsers\u005churdj00\u005cDesktop\u005cHarstra\u005ccode\u005cTera_7\u005cvt3_code\u005cvt3_POU__get_prj_version_byte.h
p372
S'fb42ebcb2994deaa0c678f0385485fa1'
p373
sVC:\u005cUsers\u005churdj00\u005cDesktop\u005cHartstra_10041_V0.1\u005ccode\u005cTera_7\u005cvt3_code\u005cvt3_POU__home_data.h
p374
S'f81930e729c7b0af526b7cb29a6f9931'
p375
sVP:\u005cMobile Controls\u005cCUSTOMERS\u005cHartstra\u005cHartstra_10041_V0.1\u005ccode\u005cTera_7\u005cvt3_code\u005cvt3_POU__lcdSetBlank.h
p376
S'ddfdc2e8d7ed09c43e372876a89df454'
p377
sVC:\u005cUsers\u005churdj00\u005cDesktop\u005cHarstra\u005ccode\u005cTera_7\u005cvt3_code\u005cvt3_POU__get_prj_version.h
p378
S'a49e34ca22601f3771b1a95024c0c979'
p379
sVC:\u005cUsers\u005churdj00\u005cDesktop\u005cHartstra_10041_V0.1\u005ccode\u005cTera_7\u005cvt3_code\u005cvt3_POU__home_data.c
p380
S'95980268ade8ecbf7867ec73bc6b8739'
p381
sVC:\u005cUsers\u005churdj00\u005cDesktop\u005cHartstra_10041_V0.1\u005ccode\u005cTera_7\u005cvt3_code\u005cvt3_POU__mountSD.h
p382
S'72dff1ea27086214a335451a0622d46c'
p383
sVP:\u005cMobile Controls\u005cCUSTOMERS\u005cHartstra\u005cHartstra_10041_V0.1\u005ccode\u005cTera_7\u005cvt3_code\u005cvt3_POU__get_prj_version.h
p384
S'a49e34ca22601f3771b1a95024c0c979'
p385
sVC:\u005cUsers\u005churdj00\u005cDesktop\u005cHartstra_10041_V0.1\u005ccode\u005cTera_7\u005cvt3_code\u005cvt3_BMP__RedButtonStyle1_0_0.h
p386
S'd5046e9cbc94173131f252fa41a33acf'
p387
sVC:\u005cUsers\u005churdj00\u005cDesktop\u005cHarstra\u005ccode\u005cTera_7\u005cvt3_code\u005cvt3_BMP__YlwButtonStyle1_0_0.h
p388
S'7c954ba97a5eaef59669f9bd93a13a88'
p389
sVP:\u005cMobile Controls\u005cCUSTOMERS\u005cHartstra\u005cHartstra_10041_V0.1\u005ccode\u005cTera_7\u005cvt3_code\u005cvt3_POU_string_typedef.h
p390
S'878acfc1d6d7d5859feaefbb3f0f1548'
p391
sVC:\u005cUsers\u005churdj00\u005cDesktop\u005cHartstra_10041_V0.1\u005ccode\u005cTera_7\u005cvt3_code\u005cvt3_BMP__GryButtonStyle1_0_0.h
p392
S'1399adba65e3b4e78ba959714327f2c9'
p393
sVC:\u005cUsers\u005churdj00\u005cDesktop\u005cHartstra_10041_V0.1\u005ccode\u005cTera_7\u005cvt3_code\u005cvt3_disp_common.c
p394
S'2b10691abcb7e62dc9c3a9467896b807'
p395
sVC:\u005cUsers\u005churdj00\u005cDesktop\u005cHartstra_10041_V0.1\u005ccode\u005cTera_7\u005cvt3_code\u005cvt3_disp_common.h
p396
S'd9682153424ccc066a63b3c40f1bc9eb'
p397
sVP:\u005cMobile Controls\u005cCUSTOMERS\u005cHartstra\u005cHartstra_10041_V0.1\u005ccode\u005cTera_7\u005cvt3_code\u005cvt3_alarms.c
p398
S'924fb0eff633b8ff56d9a54f1a7f8ed4'
p399
sVC:\u005cUsers\u005churdj00\u005cDesktop\u005cHarstra\u005ccode\u005cTera_7\u005cvt3_code\u005cvt3_vars.h
p400
S'ec1e146c415582fe964de321abc1e210'
p401
sVP:\u005cMobile Controls\u005cCUSTOMERS\u005cHartstra\u005cHartstra_10041_V0.1\u005ccode\u005cTera_7\u005cvt3_code\u005cvt3_alarms.h
p402
S'fe6ff769366d0d1ff417804620480363'
p403
sVC:\u005cUsers\u005churdj00\u005cDesktop\u005cHarstra\u005ccode\u005cTera_7\u005cvt3_code\u005cvt3_vars.c
p404
S'574ab7baf509a2321dfea5b895d2c950'
p405
sVC:\u005cUsers\u005churdj00\u005cDesktop\u005cHartstra_10041_V0.1\u005ccode\u005cTera_7\u005cvt3_code\u005cvt3_Event__Camera.c
p406
S'8ebcdab00e93d5af7e34fa357f31007b'
p407
sVP:\u005cMobile Controls\u005cCUSTOMERS\u005cHartstra\u005cHartstra_10041_V0.1\u005ccode\u005cTera_7\u005cvt3_code\u005cvt3_BMP__RedButtonStyle1_0_0.h
p408
S'd5046e9cbc94173131f252fa41a33acf'
p409
sVC:\u005cUsers\u005churdj00\u005cDesktop\u005cHartstra_10041_V0.1\u005ccode\u005cTera_7\u005cvt3_code\u005cvt3_Event__Camera.h
p410
S'4d576ab64fe499422d846239e624add9'
p411
sVP:\u005cMobile Controls\u005cCUSTOMERS\u005cHartstra\u005cHartstra_10041_V0.1\u005ccode\u005cTera_7\u005cvt3_code\u005cvt3_POU__SET_POWER_FAIL_SHUTDOWN.h
p412
S'bc09daf7d5461e1a0ab2cea2e1262bde'
p413
sVP:\u005cMobile Controls\u005cCUSTOMERS\u005cHartstra\u005cHartstra_10041_V0.1\u005ccode\u005cTera_7\u005cvt3_code\u005cvt3_lang.c
p414
S'806ccd2e75a99d291663284e9ab25fa2'
p415
sVP:\u005cMobile Controls\u005cCUSTOMERS\u005cHartstra\u005cHartstra_10041_V0.1\u005ccode\u005cTera_7\u005cvt3_code\u005cvt3_POU__umountSD.h
p416
S'c78a8f025553f187d3d66c99fca1af75'
p417
sVP:\u005cMobile Controls\u005cCUSTOMERS\u005cHartstra\u005cHartstra_10041_V0.1\u005ccode\u005cTera_7\u005cvt3_code\u005cvt3_lang.h
p418
S'a8721b58f9ff16d6cdbdf9f2df45f9fd'
p419
sVC:\u005cUsers\u005churdj00\u005cDesktop\u005cHartstra_10041_V0.1\u005ccode\u005cTera_7\u005cvt3_code\u005cvt3_POU__get_prj_version_byte.h
p420
S'fb42ebcb2994deaa0c678f0385485fa1'
p421
sVC:\u005cUsers\u005churdj00\u005cDesktop\u005cHartstra_10041_V0.1\u005ccode\u005cTera_7\u005cvt3_code\u005cvt3_IO.c
p422
S'ddbc987bc2fecbd3bc3ee3e13380de89'
p423
sVP:\u005cMobile Controls\u005cCUSTOMERS\u005cHartstra\u005cHartstra_10041_V0.1\u005ccode\u005cTera_7\u005cvt3_code\u005cvt3_Disp__Home.h
p424
S'59715e79f55018318100f517a2342b0e'
p425
sVC:\u005cUsers\u005churdj00\u005cDesktop\u005cHartstra_10041_V0.1\u005ccode\u005cTera_7\u005cvt3_code\u005cvt3_init_persistent_f_array.c
p426
S'd2643a61ff12c08922325f5a25135faa'
p427
sVC:\u005cUsers\u005churdj00\u005cDesktop\u005cHartstra_10041_V0.1\u005ccode\u005cTera_7\u005cvt3_code\u005cvt3_init_persistent_f_array.h
p428
S'4961bac531fd7b438c30560dbf5950df'
p429
sVP:\u005cMobile Controls\u005cCUSTOMERS\u005cHartstra\u005cHartstra_10041_V0.1\u005ccode\u005cTera_7\u005cvt3_code\u005cvt3_Disp__Home.c
p430
S'a5ff78d778ea901a403c003cc5257124'
p431
sVC:\u005cUsers\u005churdj00\u005cDesktop\u005cHarstra\u005ccode\u005cTera_7\u005cvt3_code\u005cvt3_POU__ST_TRANSLATE.h
p432
S'ad2554746a321871bf7eb15c907c79d9'
p433
sVC:\u005cUsers\u005churdj00\u005cDesktop\u005cHartstra_10041_V0.1\u005ccode\u005cTera_7\u005cvt3_code\u005cvt3_POU__ST_TRANSLATE.h
p434
S'ad2554746a321871bf7eb15c907c79d9'
p435
sVC:\u005cUsers\u005churdj00\u005cDesktop\u005cHarstra\u005ccode\u005cTera_7\u005cvt3_code\u005cvt3_Event__Splash.h
p436
S'82539d5311c38589470c28d0bd1f89a1'
p437
sVC:\u005cUsers\u005churdj00\u005cDesktop\u005cHarstra\u005ccode\u005cTera_7\u005cvt3_code\u005cvt3_Event__Splash.c
p438
S'2fcaccd52543a413b365ddb71cec5fe2'
p439
sVC:\u005cUsers\u005churdj00\u005cDesktop\u005cHartstra_10041_V0.1\u005ccode\u005cTera_7\u005cvt3_code\u005cvt3_Disp__Splash.h
p440
S'6d386b7897d6639464bb4f87b98200a4'
p441
sVP:\u005cMobile Controls\u005cCUSTOMERS\u005cHartstra\u005cHartstra_10041_V0.1\u005ccode\u005cTera_7\u005cvt3_code\u005cvt3_POU__setup_data.c
p442
S'5ec975ebafb6a0aae91ab3812cd81c7d'
p443
sVP:\u005cMobile Controls\u005cCUSTOMERS\u005cHartstra\u005cHartstra_10041_V0.1\u005ccode\u005cTera_7\u005cvt3_code\u005cvt3_POU__setup_data.h
p444
S'f5c57c650f37a51c317c0b7aae640654'
p445
sVP:\u005cMobile Controls\u005cCUSTOMERS\u005cHartstra\u005cHartstra_10041_V0.1\u005ccode\u005cTera_7\u005cvt3_code\u005cvt3_POU__usbUpdate.h
p446
S'3f5e759a10e3069777771cdfe1bf7230'
p447
sVC:\u005cUsers\u005churdj00\u005cDesktop\u005cHartstra_10041_V0.1\u005ccode\u005cTera_7\u005cvt3_code\u005cvt3_POU__INIT_SD_USB.h
p448
S'8edab598163e13617dec6af2402f6946'
p449
sVC:\u005cUsers\u005churdj00\u005cDesktop\u005cHartstra_10041_V0.1\u005ccode\u005cTera_7\u005cvt3_code\u005cvt3_images.h
p450
S'da3920d825848d82e66ab231ae998a99'
p451
sVC:\u005cUsers\u005churdj00\u005cDesktop\u005cHartstra_10041_V0.1\u005ccode\u005cTera_7\u005cvt3_code\u005cvt3_alarms.c
p452
S'924fb0eff633b8ff56d9a54f1a7f8ed4'
p453
sVC:\u005cUsers\u005churdj00\u005cDesktop\u005cHarstra\u005ccode\u005cTera_7\u005cvt3_code\u005cvt3_BMP__HartstraLogo2_0_0.h
p454
S'd4654c783b6b99309eb0c6a7ea13d6d8'
p455
sVC:\u005cUsers\u005churdj00\u005cDesktop\u005cHartstra_10041_V0.1\u005ccode\u005cTera_7\u005cvt3_code\u005cvt3_Event__Home.c
p456
S'ae4e5e819915071ea266684ea6bf4cba'
p457
sVC:\u005cUsers\u005churdj00\u005cDesktop\u005cHartstra_10041_V0.1\u005ccode\u005cTera_7\u005cvt3_code\u005cvt3_alarms.h
p458
S'fe6ff769366d0d1ff417804620480363'
p459
sVC:\u005cUsers\u005churdj00\u005cDesktop\u005cHartstra_10041_V0.1\u005ccode\u005cTera_7\u005cvt3_code\u005cvt3_Event__Home.h
p460
S'af58b1b55414848c66f8aebadb46b81e'
p461
sVC:\u005cUsers\u005churdj00\u005cDesktop\u005cHartstra_10041_V0.1\u005ccode\u005cTera_7\u005cvt3_code\u005cvt3_BMP__GrnButtonStyle1_0_0.h
p462
S'26de596f5675c33fb5b5239574439e2d'
p463
sVC:\u005cUsers\u005churdj00\u005cDesktop\u005cHartstra_10041_V0.1\u005ccode\u005cTera_7\u005cvt3_code\u005cvt3_POU__PLC_PRG.h
p464
S'1f9f56124d974ed3d859577727aeeef3'
p465
sVP:\u005cMobile Controls\u005cCUSTOMERS\u005cHartstra\u005cHartstra_10041_V0.1\u005ccode\u005cTera_7\u005cvt3_code\u005cvt3_palette.c
p466
S'e23c9e47ad38f1cdb9528ab6f35fd755'
p467
sVP:\u005cMobile Controls\u005cCUSTOMERS\u005cHartstra\u005cHartstra_10041_V0.1\u005ccode\u005cTera_7\u005cvt3_code\u005cvt3_POU__BYTE_TO_ASCII.h
p468
S'38cb083d133586d5c3ede0a2bded46b7'
p469
sVP:\u005cMobile Controls\u005cCUSTOMERS\u005cHartstra\u005cHartstra_10041_V0.1\u005ccode\u005cTera_7\u005cvt3_code\u005cvt3_palette.h
p470
S'7c7e08576438bd557f3c8a16226dc059'
p471
sVC:\u005cUsers\u005churdj00\u005cDesktop\u005cHarstra\u005ccode\u005cTera_7\u005cvt3_code\u005cvt3_POU__GET_POWER_FAIL.h
p472
S'5d4714165fc4987308149061006f41b0'
p473
sVC:\u005cUsers\u005churdj00\u005cDesktop\u005cHartstra_10041_V0.1\u005ccode\u005cTera_7\u005cvt3_code\u005cvt3_CAN__CanInterface.c
p474
S'6af21f4d4e900d9c99c2bf46fe881831'
p475
sVC:\u005cUsers\u005churdj00\u005cDesktop\u005cHartstra_10041_V0.1\u005ccode\u005cTera_7\u005cvt3_code\u005cvt3_CAN__CanInterface.h
p476
S'4ba8c93f1ea3ac6c6208bc8f501c7287'
p477
sVC:\u005cUsers\u005churdj00\u005cDesktop\u005cHarstra\u005ccode\u005cTera_7\u005cvt3_code\u005cvt3_CAN__CanInterface.h
p478
S'4ba8c93f1ea3ac6c6208bc8f501c7287'
p479
sVC:\u005cUsers\u005churdj00\u005cDesktop\u005cHarstra\u005ccode\u005cTera_7\u005cvt3_code\u005cvt3_POU__slaveConfig.c
p480
S'250282194da6b1fd2d12a0260069806d'
p481
sVC:\u005cUsers\u005churdj00\u005cDesktop\u005cHarstra\u005ccode\u005cTera_7\u005cvt3_code\u005cvt3_POU__slaveConfig.h
p482
S'bf079b10366ee781141b3c95541c11ca'
p483
sVC:\u005cUsers\u005churdj00\u005cDesktop\u005cHarstra\u005ccode\u005cTera_7\u005cvt3_code\u005cvt3_CAN__CanInterface.c
p484
S'6af21f4d4e900d9c99c2bf46fe881831'
p485
sVC:\u005cUsers\u005churdj00\u005cDesktop\u005cHarstra\u005ccode\u005cTera_7\u005cvt3_code\u005cvt3_POU__WRITE_EL_PRIVATE.h
p486
S'28304ebffb0556ce574c9a70b46bcdcd'
p487
sVP:\u005cMobile Controls\u005cCUSTOMERS\u005cHartstra\u005cHartstra_10041_V0.1\u005ccode\u005cTera_7\u005cvt3_code\u005cvt3_init_persistent_r_array.h
p488
S'6e2e768d269693560e62c805fccc7da5'
p489
sVP:\u005cMobile Controls\u005cCUSTOMERS\u005cHartstra\u005cHartstra_10041_V0.1\u005ccode\u005cTera_7\u005cvt3_code\u005cvt3_init_persistent_r_array.c
p490
S'68ed6d0171041046035d972b823fe6bf'
p491
sVC:\u005cUsers\u005churdj00\u005cDesktop\u005cHarstra\u005ccode\u005cTera_7\u005cvt3_code\u005cvt3_CAN_common.c
p492
S'4a4524c4eb24e82ed6e7a58206305fed'
p493
sVC:\u005cUsers\u005churdj00\u005cDesktop\u005cHarstra\u005ccode\u005cTera_7\u005cvt3_code\u005cvt3_CAN_common.h
p494
S'5a7dcad396f420054a22da23ceedb260'
p495
sVC:\u005cUsers\u005churdj00\u005cDesktop\u005cHarstra\u005ccode\u005cTera_7\u005cvt3_code\u005cvt3_BMP__RedButtonStyle1_0_0.h
p496
S'd5046e9cbc94173131f252fa41a33acf'
p497
sVP:\u005cMobile Controls\u005cCUSTOMERS\u005cHartstra\u005cHartstra_10041_V0.1\u005ccode\u005cTera_7\u005cvt3_code\u005cvt3_Disp__Splash.c
p498
S'7201ef9fd1bde156e8b13d64deabd492'
p499
sVP:\u005cMobile Controls\u005cCUSTOMERS\u005cHartstra\u005cHartstra_10041_V0.1\u005ccode\u005cTera_7\u005cvt3_code\u005cvt3_IO.h
p500
S'f0b713b9daa93742b2b221371a7e3ad2'
p501
sVP:\u005cMobile Controls\u005cCUSTOMERS\u005cHartstra\u005cHartstra_10041_V0.1\u005ccode\u005cTera_7\u005cvt3_code\u005cvt3_Disp__Splash.h
p502
S'6d386b7897d6639464bb4f87b98200a4'
p503
sVP:\u005cMobile Controls\u005cCUSTOMERS\u005cHartstra\u005cHartstra_10041_V0.1\u005ccode\u005cTera_7\u005cvt3_code\u005cvt3_IO.c
p504
S'ddbc987bc2fecbd3bc3ee3e13380de89'
p505
sVP:\u005cMobile Controls\u005cCUSTOMERS\u005cHartstra\u005cHartstra_10041_V0.1\u005ccode\u005cTera_7\u005cvt3_code\u005cvt3_init_persistent_p_array.h
p506
S'0af64c3cc4888d6473556f273bc1f64e'
p507
sVC:\u005cUsers\u005churdj00\u005cDesktop\u005cHartstra_10041_V0.1\u005ccode\u005cTera_7\u005cvt3_code\u005cvt3_BMP__HartstraLogo2_0_0.h
p508
S'd4654c783b6b99309eb0c6a7ea13d6d8'
p509
sVC:\u005cUsers\u005churdj00\u005cDesktop\u005cHartstra_10041_V0.1\u005ccode\u005cTera_7\u005cvt3_code\u005cvt3_trend_sampling.c
p510
S'4515ec49943d262cae4c828e39dd552d'
p511
sVP:\u005cMobile Controls\u005cCUSTOMERS\u005cHartstra\u005cHartstra_10041_V0.1\u005ccode\u005cTera_7\u005cvt3_code\u005cvt3_init_persistent_p_array.c
p512
S'41a674ad1e911293069a51e2a10ced28'
p513
sVC:\u005cUsers\u005churdj00\u005cDesktop\u005cHarstra\u005ccode\u005cTera_7\u005cvt3_code\u005cvt3_lang.c
p514
S'806ccd2e75a99d291663284e9ab25fa2'
p515
sVC:\u005cUsers\u005churdj00\u005cDesktop\u005cHarstra\u005ccode\u005cTera_7\u005cvt3_code\u005cvt3_POU.h
p516
S'a6579c7b36ae06babe016f801ddd377a'
p517
sVP:\u005cMobile Controls\u005cCUSTOMERS\u005cHartstra\u005cHartstra_10041_V0.1\u005ccode\u005cTera_7\u005cvt3_code\u005cvt3_POU__doBrightness.c
p518
S'12d5db05feb130a14db3ab7d4b8132f4'
p519
sVP:\u005cMobile Controls\u005cCUSTOMERS\u005cHartstra\u005cHartstra_10041_V0.1\u005ccode\u005cTera_7\u005cvt3_code\u005cvt3_POU__doBrightness.h
p520
S'bd7f0e9533f882db1b8709a3dd583a12'
p521
sVC:\u005cUsers\u005churdj00\u005cDesktop\u005cHarstra\u005ccode\u005cTera_7\u005cvt3_code\u005cvt3_POU.c
p522
S'e45f19b1caf1fd87ed8b9c0a5e283751'
p523
sVP:\u005cMobile Controls\u005cCUSTOMERS\u005cHartstra\u005cHartstra_10041_V0.1\u005ccode\u005cTera_7\u005cvt3_code\u005cvt3_init_persistent_f_array.h
p524
S'4961bac531fd7b438c30560dbf5950df'
p525
sVC:\u005cUsers\u005churdj00\u005cDesktop\u005cHarstra\u005ccode\u005cTera_7\u005cvt3_code\u005cvt3_POU__req_touchcalibration.h
p526
S'ca983682e3fdc0f466cefe0b40bae1df'
p527
sVP:\u005cMobile Controls\u005cCUSTOMERS\u005cHartstra\u005cHartstra_10041_V0.1\u005ccode\u005cTera_7\u005cvt3_code\u005cvt3_Disp__Camera.c
p528
S'e0b43fd972085d59e8b2f1f6af976568'
p529
sVC:\u005cUsers\u005churdj00\u005cDesktop\u005cHarstra\u005ccode\u005cTera_7\u005cvt3_code\u005cvt3_POU__usbUpdate.h
p530
S'3f5e759a10e3069777771cdfe1bf7230'
p531
sVP:\u005cMobile Controls\u005cCUSTOMERS\u005cHartstra\u005cHartstra_10041_V0.1\u005ccode\u005cTera_7\u005cvt3_code\u005cvt3_Disp__Camera.h
p532
S'eccd4b933efc505b8b9b483a1515e7fa'
p533
sVC:\u005cUsers\u005churdj00\u005cDesktop\u005cHarstra\u005ccode\u005cTera_7\u005cvt3_code\u005cvt3_POU__usbUpdate.c
p534
S'b3857117872991ad521d98f50daac406'
p535
sVC:\u005cUsers\u005churdj00\u005cDesktop\u005cHartstra_10041_V0.1\u005ccode\u005cTera_7\u005cvt3_code\u005cvt3_POU__WRITE_EL.h
p536
S'1a5c19894715ccdebdfbdcd51a8c94f0'
p537
sVP:\u005cMobile Controls\u005cCUSTOMERS\u005cHartstra\u005cHartstra_10041_V0.1\u005ccode\u005cTera_7\u005cvt3_code\u005cvt3_POU__interpol.c
p538
S'f6e11149bc04c40fe5fcaf31b1231cbf'
p539
sVC:\u005cUsers\u005churdj00\u005cDesktop\u005cHarstra\u005ccode\u005cTera_7\u005cvt3_code\u005cvt3_palette.c
p540
S'e23c9e47ad38f1cdb9528ab6f35fd755'
p541
sVC:\u005cUsers\u005churdj00\u005cDesktop\u005cHarstra\u005ccode\u005cTera_7\u005cvt3_code\u005cvt3_POU__WRITE_EL_TO_SD.h
p542
S'5a3ec85ee871bb38535cb8f3e9515e31'
p543
sVC:\u005cUsers\u005churdj00\u005cDesktop\u005cHarstra\u005ccode\u005cTera_7\u005cvt3_code\u005cvt3_palette.h
p544
S'7c7e08576438bd557f3c8a16226dc059'
p545
sVP:\u005cMobile Controls\u005cCUSTOMERS\u005cHartstra\u005cHartstra_10041_V0.1\u005ccode\u005cTera_7\u005cvt3_code\u005cvt3_POU__splash_data.c
p546
S'831367c3729466e584ad1a15a8c0b6dc'
p547
sVC:\u005cUsers\u005churdj00\u005cDesktop\u005cHartstra_10041_V0.1\u005ccode\u005cTera_7\u005cvt3_code\u005cvt3_CAN_common.h
p548
S'5a7dcad396f420054a22da23ceedb260'
p549
sVP:\u005cMobile Controls\u005cCUSTOMERS\u005cHartstra\u005cHartstra_10041_V0.1\u005ccode\u005cTera_7\u005cvt3_code\u005cvt3_POU__splash_data.h
p550
S'06a56c5d97951cdf3f7735cdc55434aa'
p551
sVC:\u005cUsers\u005churdj00\u005cDesktop\u005cHartstra_10041_V0.1\u005ccode\u005cTera_7\u005cvt3_code\u005cvt3_CAN_common.c
p552
S'4a4524c4eb24e82ed6e7a58206305fed'
p553
sVC:\u005cUsers\u005churdj00\u005cDesktop\u005cHartstra_10041_V0.1\u005ccode\u005cTera_7\u005cvt3_code\u005cvt3_fonts.c
p554
S'59e544d226ae179dd444bd1c6c851d7e'
p555
sVP:\u005cMobile Controls\u005cCUSTOMERS\u005cHartstra\u005cHartstra_10041_V0.1\u005ccode\u005cTera_7\u005cvt3_code\u005cvt3_slaves.c
p556
S'1d50fb0927b3a06b6df02ef6f2ed16ab'
p557
sVC:\u005cUsers\u005churdj00\u005cDesktop\u005cHartstra_10041_V0.1\u005ccode\u005cTera_7\u005cvt3_code\u005cvt3_fonts.h
p558
S'2d4cc764408dc265a605b94c365b1284'
p559
sVC:\u005cUsers\u005churdj00\u005cDesktop\u005cHartstra_10041_V0.1\u005ccode\u005cTera_7\u005cvt3_code\u005cvt3_disp_events.c
p560
S'b660ab564030d1e0be25114bea24119e'
p561
sVC:\u005cUsers\u005churdj00\u005cDesktop\u005cHarstra\u005ccode\u005cTera_7\u005cvt3_code\u005cvt3_init_persistent_p_array.c
p562
S'41a674ad1e911293069a51e2a10ced28'
p563
sVP:\u005cMobile Controls\u005cCUSTOMERS\u005cHartstra\u005cHartstra_10041_V0.1\u005ccode\u005cTera_7\u005cvt3_code\u005cvt3_POU__usbUpdate.c
p564
S'b3857117872991ad521d98f50daac406'
p565
sVC:\u005cUsers\u005churdj00\u005cDesktop\u005cHartstra_10041_V0.1\u005ccode\u005cTera_7\u005cvt3_code\u005cvt3_Event__Splash.h
p566
S'82539d5311c38589470c28d0bd1f89a1'
p567
sVC:\u005cUsers\u005churdj00\u005cDesktop\u005cHartstra_10041_V0.1\u005ccode\u005cTera_7\u005cvt3_code\u005cvt3_Event__Splash.c
p568
S'2fcaccd52543a413b365ddb71cec5fe2'
p569
sVC:\u005cUsers\u005churdj00\u005cDesktop\u005cHarstra\u005ccode\u005cTera_7\u005cvt3_code\u005cvt3_init_persistent_p_array.h
p570
S'0af64c3cc4888d6473556f273bc1f64e'
p571
sVC:\u005cUsers\u005churdj00\u005cDesktop\u005cHartstra_10041_V0.1\u005ccode\u005cTera_7\u005cvt3_code\u005cvt3_Disp__Setup.c
p572
S'3edae3bc5cf3a68290d5944684eb42e7'
p573
sVC:\u005cUsers\u005churdj00\u005cDesktop\u005cHarstra\u005ccode\u005cTera_7\u005cvt3_code\u005cvt3_POU__global_data.c
p574
S'b5c00671f15d63f6dbb69735e918e056'
p575
sVP:\u005cMobile Controls\u005cCUSTOMERS\u005cHartstra\u005cHartstra_10041_V0.1\u005ccode\u005cTera_7\u005cvt3_code\u005cvt3_POU__PLC_PRG.h
p576
S'1f9f56124d974ed3d859577727aeeef3'
p577
sVC:\u005cUsers\u005churdj00\u005cDesktop\u005cHartstra_10041_V0.1\u005ccode\u005cTera_7\u005cvt3_code\u005cvt3_Disp__Setup.h
p578
S'55da64aefb4d80bdefbe4b3c16f7f52f'
p579
sVP:\u005cMobile Controls\u005cCUSTOMERS\u005cHartstra\u005cHartstra_10041_V0.1\u005ccode\u005cTera_7\u005cvt3_code\u005cvt3_POU__PLC_PRG.c
p580
S'817fb867ffd52e0f8d8d1176be57970a'
p581
sVC:\u005cUsers\u005churdj00\u005cDesktop\u005cHarstra\u005ccode\u005cTera_7\u005cvt3_code\u005cvt3_POU__global_data.h
p582
S'fb7dde5f96d993cb8a1fc78dba76af73'
p583
sVP:\u005cMobile Controls\u005cCUSTOMERS\u005cHartstra\u005cHartstra_10041_V0.1\u005ccode\u005cTera_7\u005cvt3_code\u005cvt3_Event__Home.c
p584
S'ae4e5e819915071ea266684ea6bf4cba'
p585
sVP:\u005cMobile Controls\u005cCUSTOMERS\u005cHartstra\u005cHartstra_10041_V0.1\u005ccode\u005cTera_7\u005cvt3_code\u005cvt3_Event__Home.h
p586
S'af58b1b55414848c66f8aebadb46b81e'
p587
sVP:\u005cMobile Controls\u005cCUSTOMERS\u005cHartstra\u005cHartstra_10041_V0.1\u005ccode\u005cTera_7\u005cvt3_code\u005cvt3_POU__req_touchcalibration.h
p588
S'ca983682e3fdc0f466cefe0b40bae1df'
p589
sVC:\u005cUsers\u005churdj00\u005cDesktop\u005cHarstra\u005ccode\u005cTera_7\u005cvt3_code\u005cvt3_POU__slaveConfigFB_CPU0.c
p590
S'8e10f799a9bff5663a17d9491a8fe8b6'
p591
sVC:\u005cUsers\u005churdj00\u005cDesktop\u005cHarstra\u005ccode\u005cTera_7\u005cvt3_code\u005cvt3_POU__mountSD.h
p592
S'72dff1ea27086214a335451a0622d46c'
p593
sVC:\u005cUsers\u005churdj00\u005cDesktop\u005cHarstra\u005ccode\u005cTera_7\u005cvt3_code\u005cvt3_POU__slaveConfigFB_CPU0.h
p594
S'7e0b23c90bfcfdcdd6f178f4dbfe6c66'
p595
sVP:\u005cMobile Controls\u005cCUSTOMERS\u005cHartstra\u005cHartstra_10041_V0.1\u005ccode\u005cTera_7\u005cvt3_code\u005cvt3_POU__slaveConfigFB_CPU1.c
p596
S'5cf2db8f84b7b3219442fdba2b15f3c3'
p597
sVP:\u005cMobile Controls\u005cCUSTOMERS\u005cHartstra\u005cHartstra_10041_V0.1\u005ccode\u005cTera_7\u005cvt3_code\u005cvt3_POU.h
p598
S'a6579c7b36ae06babe016f801ddd377a'
p599
sVP:\u005cMobile Controls\u005cCUSTOMERS\u005cHartstra\u005cHartstra_10041_V0.1\u005ccode\u005cTera_7\u005cvt3_code\u005cvt3_POU__umountUSB.h
p600
S'0a7a7c4771e3c92265bd5c264629cb7c'
p601
sVC:\u005cUsers\u005churdj00\u005cDesktop\u005cHartstra_10041_V0.1\u005ccode\u005cTera_7\u005cvt3_code\u005cvt3_POU__outputs.h
p602
S'417e291da49adbc702c64a1091396c6b'
p603
sVC:\u005cUsers\u005churdj00\u005cDesktop\u005cHarstra\u005ccode\u005cTera_7\u005cvt3_code\u005cvt3_POU__interpol.c
p604
S'f6e11149bc04c40fe5fcaf31b1231cbf'
p605
sVC:\u005cUsers\u005churdj00\u005cDesktop\u005cHartstra_10041_V0.1\u005ccode\u005cTera_7\u005cvt3_code\u005cvt3_POU__mountUSB.h
p606
S'4b9695cd4c7ab715a8531a6aeb27e894'
p607
sVC:\u005cUsers\u005churdj00\u005cDesktop\u005cHarstra\u005ccode\u005cTera_7\u005cvt3_code\u005cvt3_POU__PLC_PRG.c
p608
S'817fb867ffd52e0f8d8d1176be57970a'
p609
sVC:\u005cUsers\u005churdj00\u005cDesktop\u005cHarstra\u005ccode\u005cTera_7\u005cvt3_code\u005cvt3_POU__interpol.h
p610
S'd692c1ce268a9e801aac9576ba8dcdff'
p611
sVC:\u005cUsers\u005churdj00\u005cDesktop\u005cHartstra_10041_V0.1\u005ccode\u005cTera_7\u005cvt3_code\u005cvt3_Event__ScreenFrame.c
p612
S'a09ba3c3b436ddf656660d690fe83685'
p613
sVC:\u005cUsers\u005churdj00\u005cDesktop\u005cHartstra_10041_V0.1\u005ccode\u005cTera_7\u005cvt3_code\u005cvt3_POU__INIT_BYTEARRAY_R.h
p614
S'5df33f87a18e04cca24cfbcb60efff6d'
p615
sVC:\u005cUsers\u005churdj00\u005cDesktop\u005cHartstra_10041_V0.1\u005ccode\u005cTera_7\u005cvt3_code\u005cvt3_Event__ScreenFrame.h
p616
S'b35c8bbc4863ec4ac3ac49f98234be1c'
p617
sVP:\u005cMobile Controls\u005cCUSTOMERS\u005cHartstra\u005cHartstra_10041_V0.1\u005ccode\u005cTera_7\u005cvt3_code\u005cvt3_POU.c
p618
S'e45f19b1caf1fd87ed8b9c0a5e283751'
p619
sVP:\u005cMobile Controls\u005cCUSTOMERS\u005cHartstra\u005cHartstra_10041_V0.1\u005ccode\u005cTera_7\u005cvt3_code\u005cvt3_Event__Camera.h
p620
S'4d576ab64fe499422d846239e624add9'
p621
sVP:\u005cMobile Controls\u005cCUSTOMERS\u005cHartstra\u005cHartstra_10041_V0.1\u005ccode\u005cTera_7\u005cvt3_code\u005cvt3_POU__iocore_data.h
p622
S'1343d4a622945dc0ed20745d5f00732e'
p623
sVC:\u005cUsers\u005churdj00\u005cDesktop\u005cHartstra_10041_V0.1\u005ccode\u005cTera_7\u005cvt3_code\u005cvt3_disp.h
p624
S'303a36c83bab1b63098f5bb344c215e8'
p625
sVP:\u005cMobile Controls\u005cCUSTOMERS\u005cHartstra\u005cHartstra_10041_V0.1\u005ccode\u005cTera_7\u005cvt3_code\u005cvt3_POU__ST_TRANSLATE.h
p626
S'ad2554746a321871bf7eb15c907c79d9'
p627
sVP:\u005cMobile Controls\u005cCUSTOMERS\u005cHartstra\u005cHartstra_10041_V0.1\u005ccode\u005cTera_7\u005cvt3_code\u005cvt3_POU__get_prj_version_byte.h
p628
S'fb42ebcb2994deaa0c678f0385485fa1'
p629
sVP:\u005cMobile Controls\u005cCUSTOMERS\u005cHartstra\u005cHartstra_10041_V0.1\u005ccode\u005cTera_7\u005cvt3_code\u005cvt3_BMP__YlwButtonStyle1_0_0.h
p630
S'7c954ba97a5eaef59669f9bd93a13a88'
p631
sVC:\u005cUsers\u005churdj00\u005cDesktop\u005cHartstra_10041_V0.1\u005ccode\u005cTera_7\u005cvt3_code\u005cvt3_var_version.c
p632
S'3abc02f2a2605e830eabf7de57ebfdaf'
p633
sVC:\u005cUsers\u005churdj00\u005cDesktop\u005cHarstra\u005ccode\u005cTera_7\u005cvt3_code\u005cvt3_POU__SHUTDOWN.h
p634
S'0d13935e77aae17b2d8b24d5c226330f'
p635
sVP:\u005cMobile Controls\u005cCUSTOMERS\u005cHartstra\u005cHartstra_10041_V0.1\u005ccode\u005cTera_7\u005cvt3_code\u005cvt3_disp_events.c
p636
S'b660ab564030d1e0be25114bea24119e'
p637
sVC:\u005cUsers\u005churdj00\u005cDesktop\u005cHartstra_10041_V0.1\u005ccode\u005cTera_7\u005cvt3_code\u005cvt3_BMP__BluButtonStyle1_0_0.h
p638
S'1ef78b26f668a658b2f7b009f54003dc'
p639
sVC:\u005cUsers\u005churdj00\u005cDesktop\u005cHarstra\u005ccode\u005cTera_7\u005cvt3_code\u005cvt3_trend_sampling.c
p640
S'4515ec49943d262cae4c828e39dd552d'
p641
sVC:\u005cUsers\u005churdj00\u005cDesktop\u005cHartstra_10041_V0.1\u005ccode\u005cTera_7\u005cvt3_code\u005cvt3_disp.c
p642
S'9be2266030cbcfe50ba8a28ee66eece7'
p643
sVC:\u005cUsers\u005churdj00\u005cDesktop\u005cHarstra\u005ccode\u005cTera_7\u005cvt3_code\u005cvt3_POU__WRITE_EL_ENUM.h
p644
S'e27a3ba0649594da92819eca428dfeda'
p645
sVC:\u005cUsers\u005churdj00\u005cDesktop\u005cHarstra\u005ccode\u005cTera_7\u005cvt3_code\u005cvt3_Disp__Home.c
p646
S'a5ff78d778ea901a403c003cc5257124'
p647
sVC:\u005cUsers\u005churdj00\u005cDesktop\u005cHarstra\u005ccode\u005cTera_7\u005cvt3_code\u005cvt3_Disp__Home.h
p648
S'59715e79f55018318100f517a2342b0e'
p649
sVC:\u005cUsers\u005churdj00\u005cDesktop\u005cHarstra\u005ccode\u005cTera_7\u005cvt3_code\u005cvt3_disp_common.c
p650
S'2b10691abcb7e62dc9c3a9467896b807'
p651
sVC:\u005cUsers\u005churdj00\u005cDesktop\u005cHarstra\u005ccode\u005cTera_7\u005cvt3_code\u005cvt3_alarms.h
p652
S'fe6ff769366d0d1ff417804620480363'
p653
sVC:\u005cUsers\u005churdj00\u005cDesktop\u005cHarstra\u005ccode\u005cTera_7\u005cvt3_code\u005cvt3_alarms.c
p654
S'924fb0eff633b8ff56d9a54f1a7f8ed4'
p655
sVC:\u005cUsers\u005churdj00\u005cDesktop\u005cHartstra_10041_V0.1\u005ccode\u005cTera_7\u005cvt3_code\u005cvt3_BMP__HartstraLogo1_0_0.h
p656
S'7ed3418e40475b3060ef49c0390dea9a'
p657
sVP:\u005cMobile Controls\u005cCUSTOMERS\u005cHartstra\u005cHartstra_10041_V0.1\u005ccode\u005cTera_7\u005cvt3_code\u005cvt3_POU__assignIO.h
p658
S'b674e5e7034098ea0140e96fd8ebd691'
p659
sVC:\u005cUsers\u005churdj00\u005cDesktop\u005cHarstra\u005ccode\u005cTera_7\u005cvt3_code\u005cvt3_POU__lcdSetBlank.h
p660
S'ddfdc2e8d7ed09c43e372876a89df454'
p661
sVC:\u005cUsers\u005churdj00\u005cDesktop\u005cHarstra\u005ccode\u005cTera_7\u005cvt3_code\u005cvt3_POU__ARR_BYTE_version.h
p662
S'd47de601d5de58432479f1de0cde1c82'
p663
sVP:\u005cMobile Controls\u005cCUSTOMERS\u005cHartstra\u005cHartstra_10041_V0.1\u005ccode\u005cTera_7\u005cvt3_code\u005cvt3_POU__assignIO.c
p664
S'c3ca1e9b5fbebb15365d8e9e96db2439'
p665
sVP:\u005cMobile Controls\u005cCUSTOMERS\u005cHartstra\u005cHartstra_10041_V0.1\u005ccode\u005cTera_7\u005cvt3_code\u005cvt3_POU__GET_POWER_FAIL.h
p666
S'5d4714165fc4987308149061006f41b0'
p667
sVC:\u005cUsers\u005churdj00\u005cDesktop\u005cHartstra_10041_V0.1\u005ccode\u005cTera_7\u005cvt3_code\u005cvt3_POU__PLC_PRG.c
p668
S'817fb867ffd52e0f8d8d1176be57970a'
p669
sVC:\u005cUsers\u005churdj00\u005cDesktop\u005cHarstra\u005ccode\u005cTera_7\u005cvt3_code\u005cvt3_disp_events.c
p670
S'b660ab564030d1e0be25114bea24119e'
p671
sVC:\u005cUsers\u005churdj00\u005cDesktop\u005cHarstra\u005ccode\u005cTera_7\u005cvt3_code\u005cvt3_IO.h
p672
S'f0b713b9daa93742b2b221371a7e3ad2'
p673
sVC:\u005cUsers\u005churdj00\u005cDesktop\u005cHarstra\u005ccode\u005cTera_7\u005cvt3_code\u005cvt3_IO.c
p674
S'ddbc987bc2fecbd3bc3ee3e13380de89'
p675
sVC:\u005cUsers\u005churdj00\u005cDesktop\u005cHarstra\u005ccode\u005cTera_7\u005cvt3_code\u005cvt3_Disp__Splash.c
p676
S'7201ef9fd1bde156e8b13d64deabd492'
p677
sVC:\u005cUsers\u005churdj00\u005cDesktop\u005cHarstra\u005ccode\u005cTera_7\u005cvt3_code\u005cvt3_BMP__GryButtonStyle1_0_0.h
p678
S'1399adba65e3b4e78ba959714327f2c9'
p679
sVP:\u005cMobile Controls\u005cCUSTOMERS\u005cHartstra\u005cHartstra_10041_V0.1\u005ccode\u005cTera_7\u005cvt3_code\u005cvt3_BMP__HartstraLogo1_0_0.h
p680
S'7ed3418e40475b3060ef49c0390dea9a'
p681
sVC:\u005cUsers\u005churdj00\u005cDesktop\u005cHarstra\u005ccode\u005cTera_7\u005cvt3_code\u005cvt3_Disp__Splash.h
p682
S'6d386b7897d6639464bb4f87b98200a4'
p683
sVC:\u005cUsers\u005churdj00\u005cDesktop\u005cHarstra\u005ccode\u005cTera_7\u005cvt3_code\u005cvt3_POU__WRITE_EL_TO_USB.h
p684
S'c0190e515cc820176bb4d4a16e452b73'
p685
sVP:\u005cMobile Controls\u005cCUSTOMERS\u005cHartstra\u005cHartstra_10041_V0.1\u005ccode\u005cTera_7\u005cvt3_code\u005cvt3_POU__WRITE_EL_ENUM.h
p686
S'e27a3ba0649594da92819eca428dfeda'
p687
sVC:\u005cUsers\u005churdj00\u005cDesktop\u005cHarstra\u005ccode\u005cTera_7\u005cvt3_code\u005cvt3_var_version.c
p688
S'3abc02f2a2605e830eabf7de57ebfdaf'
p689
sVP:\u005cMobile Controls\u005cCUSTOMERS\u005cHartstra\u005cHartstra_10041_V0.1\u005ccode\u005cTera_7\u005cvt3_code\u005cvt3_Event__Camera.c
p690
S'8ebcdab00e93d5af7e34fa357f31007b'
p691
sVP:\u005cMobile Controls\u005cCUSTOMERS\u005cHartstra\u005cHartstra_10041_V0.1\u005ccode\u005cTera_7\u005cvt3_code\u005cvt3_var_version.c
p692
S'3abc02f2a2605e830eabf7de57ebfdaf'
p693
sVP:\u005cMobile Controls\u005cCUSTOMERS\u005cHartstra\u005cHartstra_10041_V0.1\u005ccode\u005cTera_7\u005cvt3_code\u005cvt3_disp_common.c
p694
S'2b10691abcb7e62dc9c3a9467896b807'
p695
sVP:\u005cMobile Controls\u005cCUSTOMERS\u005cHartstra\u005cHartstra_10041_V0.1\u005ccode\u005cTera_7\u005cvt3_code\u005cvt3_disp_common.h
p696
S'd9682153424ccc066a63b3c40f1bc9eb'
p697
sVC:\u005cUsers\u005churdj00\u005cDesktop\u005cHartstra_10041_V0.1\u005ccode\u005cTera_7\u005cvt3_code\u005cvt3_POU__SET_POWER_FAIL_SHUTDOWN.h
p698
S'bc09daf7d5461e1a0ab2cea2e1262bde'
p699
sVP:\u005cMobile Controls\u005cCUSTOMERS\u005cHartstra\u005cHartstra_10041_V0.1\u005ccode\u005cTera_7\u005cvt3_code\u005cvt3_POU__outputs.h
p700
S'417e291da49adbc702c64a1091396c6b'
p701
sVC:\u005cUsers\u005churdj00\u005cDesktop\u005cHarstra\u005ccode\u005cTera_7\u005cvt3_code\u005cvt3_Disp__ScreenFrame.c
p702
S'95d24bc69e130e5b5eb0105c9e38febe'
p703
sVC:\u005cUsers\u005churdj00\u005cDesktop\u005cHartstra_10041_V0.1\u005ccode\u005cTera_7\u005cvt3_code\u005cvt3_POU__task100.c
p704
S'2bf86ac7fe13b29e2f2cd90d23658fdf'
p705
sVP:\u005cMobile Controls\u005cCUSTOMERS\u005cHartstra\u005cHartstra_10041_V0.1\u005ccode\u005cTera_7\u005cvt3_code\u005cvt3_POU__outputs.c
p706
S'510a825f532e885164e5f0e743a04c10'
p707
sVC:\u005cUsers\u005churdj00\u005cDesktop\u005cHarstra\u005ccode\u005cTera_7\u005cvt3_code\u005cvt3_Disp__ScreenFrame.h
p708
S'0d7e10ab595c0247711669e994613b79'
p709
sVC:\u005cUsers\u005churdj00\u005cDesktop\u005cHartstra_10041_V0.1\u005ccode\u005cTera_7\u005cvt3_code\u005cvt3_POU__slaveConfig.c
p710
S'250282194da6b1fd2d12a0260069806d'
p711
sVP:\u005cMobile Controls\u005cCUSTOMERS\u005cHartstra\u005cHartstra_10041_V0.1\u005ccode\u005cTera_7\u005cvt3_code\u005cvt3_POU__slaveConfigFB_CPU1.h
p712
S'bf7d587fcfb11e681d4bdd8e899303ca'
p713
sVC:\u005cUsers\u005churdj00\u005cDesktop\u005cHartstra_10041_V0.1\u005ccode\u005cTera_7\u005cvt3_code\u005cvt3_POU__slaveConfig.h
p714
S'bf079b10366ee781141b3c95541c11ca'
p715
s.