(dp1
VC:\u005cUsers\u005cashlc00\u005cDesktop\u005cHartstra\u005cHartstra_10073GrandeFord\u005ccode\u005cTera_7\u005cvt3_code\u005cvt3_POU__ARR_BYTE_version.h
p2
S'd47de601d5de58432479f1de0cde1c82'
p3
sVC:\u005cUsers\u005cashlc00\u005cDesktop\u005cHartstra\u005cHartstra_10073GrandeFord\u005ccode\u005cTera_7\u005cvt3_code\u005cvt3_Disp__Camera.h
p4
S'ad15effbf7f1d9ecc9e1c03f746f3d0c'
p5
sVC:\u005cUsers\u005cashlc00\u005cDesktop\u005cHartstra\u005cHartstra_10073GrandeFord\u005ccode\u005cTera_7\u005cvt3_code\u005cvt3_init_persistent_f_array.h
p6
S'4961bac531fd7b438c30560dbf5950df'
p7
sVC:\u005cUsers\u005cashlc00\u005cDesktop\u005cHartstra\u005cHartstra_10073GrandeFord\u005ccode\u005cTera_7\u005cvt3_code\u005cvt3_Disp__Camera.c
p8
S'e52884f3c508d98678d038faa469e538'
p9
sVC:\u005cUsers\u005cashlc00\u005cDesktop\u005cHartstra\u005cHartstra_10073GrandeFord\u005ccode\u005cTera_7\u005cvt3_code\u005cvt3_init_persistent_f_array.c
p10
S'd2643a61ff12c08922325f5a25135faa'
p11
sVC:\u005cUsers\u005cashlc00\u005cDesktop\u005cHartstra\u005cHartstra_10073GrandeFord\u005ccode\u005cTera_7\u005cvt3_code\u005cvt3_POU__mountSD.h
p12
S'72dff1ea27086214a335451a0622d46c'
p13
sVC:\u005cUsers\u005cashlc00\u005cDesktop\u005cHartstra\u005cHartstra_10073GrandeFord\u005ccode\u005cTera_7\u005cvt3_code\u005cvt3_trend_sampling.c
p14
S'4515ec49943d262cae4c828e39dd552d'
p15
sVC:\u005cUsers\u005cscogs00\u005cDocuments\u005cCustomers\u005cHarstra\u005c10073_V0.2\u005cHartstra_10073GrandeFord\u005ccode\u005cTera_7\u005cvt3_code\u005cvt3_POU__slaveConfigFB_CPU1.c
p16
S'5cf2db8f84b7b3219442fdba2b15f3c3'
p17
sVC:\u005cUsers\u005cashlc00\u005cDocuments\u005cHartstra\u005cCaldwellChevrolet_10083\u005cCaldwellChevy10083_v1.0.0\u005ccode\u005cTera_7\u005cvt3_code\u005cvt3_POU__slaveConfig.h
p18
S'bf079b10366ee781141b3c95541c11ca'
p19
sVC:\u005cUsers\u005cashlc00\u005cDocuments\u005cHartstra\u005cCaldwellChevrolet_10083\u005cCaldwellChevy10083_v1.0.0\u005ccode\u005cTera_7\u005cvt3_code\u005cvt3_POU__slaveConfig.c
p20
S'250282194da6b1fd2d12a0260069806d'
p21
sVC:\u005cUsers\u005cashlc00\u005cDesktop\u005cHartstra\u005cHartstra_10073GrandeFord\u005ccode\u005cTera_7\u005cvt3_code\u005cvt3_POU__iocore_data.c
p22
S'e22bd8868ad8f87fdab2c083a14e38e3'
p23
sVC:\u005cUsers\u005cashlc00\u005cDesktop\u005cHartstra\u005cHartstra_10073GrandeFord\u005ccode\u005cTera_7\u005cvt3_code\u005cvt3_POU__iocore_data.h
p24
S'1343d4a622945dc0ed20745d5f00732e'
p25
sVC:\u005cUsers\u005cashlc00\u005cDesktop\u005cHartstra\u005cHartstra_10073GrandeFord\u005ccode\u005cTera_7\u005cvt3_code\u005cvt3_POU__ST_TRANSLATE.h
p26
S'ad2554746a321871bf7eb15c907c79d9'
p27
sVC:\u005cUsers\u005cashlc00\u005cDocuments\u005cHartstra\u005cCaldwellChevrolet_10083\u005cCaldwellChevy10083_v1.0.0\u005ccode\u005cTera_7\u005cvt3_code\u005cvt3_BMP__HartstraLogo2_0_0.h
p28
S'd4654c783b6b99309eb0c6a7ea13d6d8'
p29
sVC:\u005cUsers\u005cscogs00\u005cDocuments\u005cCustomers\u005cHarstra\u005c10073_V0.2\u005cHartstra_10073GrandeFord\u005ccode\u005cTera_7\u005cvt3_code\u005cvt3_POU__mountSD.h
p30
S'72dff1ea27086214a335451a0622d46c'
p31
sVC:\u005cUsers\u005cashlc00\u005cDocuments\u005cHartstra\u005cCaldwellChevrolet_10083\u005cCaldwellChevy10083_v1.0.0\u005ccode\u005cTera_7\u005cvt3_code\u005cvt3_POU__GET_POWER_FAIL.h
p32
S'5d4714165fc4987308149061006f41b0'
p33
sVC:\u005cUsers\u005cscogs00\u005cDocuments\u005cCustomers\u005cHarstra\u005c10073_V0.2\u005cHartstra_10073GrandeFord\u005ccode\u005cTera_7\u005cvt3_code\u005cvt3_disp_events.c
p34
S'd8feb897d0c5d3e5c1c57a9238077d73'
p35
sVC:\u005cUsers\u005cscogs00\u005cDocuments\u005cCustomers\u005cHarstra\u005c10073_V0.2\u005cHartstra_10073GrandeFord\u005ccode\u005cTera_7\u005cvt3_code\u005cvt3_var_version.c
p36
S'10624a5371239a3957879c3d84df2971'
p37
sVC:\u005cUsers\u005cashlc00\u005cDesktop\u005cHartstra\u005cHartstra_10073GrandeFord\u005ccode\u005cTera_7\u005cvt3_code\u005cvt3_Event__Setup.c
p38
S'2e8df5fcbf7bf46ae86d632f9d0b30eb'
p39
sVC:\u005cUsers\u005cashlc00\u005cDocuments\u005cHartstra\u005cCaldwellChevrolet_10083\u005cCaldwellChevy10083_v1.0.0\u005ccode\u005cTera_7\u005cvt3_code\u005cvt3_POU__usbUpdate.h
p40
S'3f5e759a10e3069777771cdfe1bf7230'
p41
sVC:\u005cUsers\u005cashlc00\u005cDesktop\u005cHartstra\u005cHartstra_10073GrandeFord\u005ccode\u005cTera_7\u005cvt3_code\u005cvt3_slaves.c
p42
S'1d50fb0927b3a06b6df02ef6f2ed16ab'
p43
sVC:\u005cUsers\u005cashlc00\u005cDocuments\u005cHartstra\u005cCaldwellChevrolet_10083\u005cCaldwellChevy10083_v1.0.0\u005ccode\u005cTera_7\u005cvt3_code\u005cvt3_POU__usbUpdate.c
p44
S'b3857117872991ad521d98f50daac406'
p45
sVC:\u005cUsers\u005cashlc00\u005cDocuments\u005cHartstra\u005cCaldwellChevrolet_10083\u005cCaldwellChevy10083_v1.0.0\u005ccode\u005cTera_7\u005cvt3_code\u005cvt3_POU__SHUTDOWN.h
p46
S'0d13935e77aae17b2d8b24d5c226330f'
p47
sVC:\u005cUsers\u005cashlc00\u005cDocuments\u005cHartstra\u005cCaldwellChevrolet_10083\u005cCaldwellChevy10083_v1.0.0\u005ccode\u005cTera_7\u005cvt3_code\u005cvt3_POU__ST_TRANSLATE.h
p48
S'ad2554746a321871bf7eb15c907c79d9'
p49
sVC:\u005cUsers\u005cashlc00\u005cDesktop\u005cHartstra\u005cHartstra_10073GrandeFord\u005ccode\u005cTera_7\u005cvt3_code\u005cvt3_CAN.h
p50
S'd576274456b16a2977d33b5db3a28e44'
p51
sVC:\u005cUsers\u005cashlc00\u005cDesktop\u005cHartstra\u005cHartstra_10073GrandeFord\u005ccode\u005cTera_7\u005cvt3_code\u005cvt3_Event__Camera2.c
p52
S'40f1b90c65405039321036e0406a4d91'
p53
sVC:\u005cUsers\u005cashlc00\u005cDesktop\u005cHartstra\u005cHartstra_10073GrandeFord\u005ccode\u005cTera_7\u005cvt3_code\u005cvt3_POU__PLC_PRG.c
p54
S'817fb867ffd52e0f8d8d1176be57970a'
p55
sVC:\u005cUsers\u005cashlc00\u005cDesktop\u005cHartstra\u005cHartstra_10073GrandeFord\u005ccode\u005cTera_7\u005cvt3_code\u005cvt3_IO.c
p56
S'ddbc987bc2fecbd3bc3ee3e13380de89'
p57
sVC:\u005cUsers\u005cashlc00\u005cDesktop\u005cHartstra\u005cHartstra_10073GrandeFord\u005ccode\u005cTera_7\u005cvt3_code\u005cvt3_POU__PLC_PRG.h
p58
S'1f9f56124d974ed3d859577727aeeef3'
p59
sVC:\u005cUsers\u005cscogs00\u005cDocuments\u005cCustomers\u005cHarstra\u005c10073_V0.2\u005cHartstra_10073GrandeFord\u005ccode\u005cTera_7\u005cvt3_code\u005cvt3_Disp__Camera.c
p60
S'e52884f3c508d98678d038faa469e538'
p61
sVC:\u005cUsers\u005cscogs00\u005cDocuments\u005cCustomers\u005cHarstra\u005c10073_V0.2\u005cHartstra_10073GrandeFord\u005ccode\u005cTera_7\u005cvt3_code\u005cvt3_Disp__Camera.h
p62
S'ad15effbf7f1d9ecc9e1c03f746f3d0c'
p63
sVC:\u005cUsers\u005cscogs00\u005cDocuments\u005cCustomers\u005cHarstra\u005c10073_V0.2\u005cHartstra_10073GrandeFord\u005ccode\u005cTera_7\u005cvt3_code\u005cvt3_POU__BYTE_TO_ASCII.h
p64
S'38cb083d133586d5c3ede0a2bded46b7'
p65
sVC:\u005cUsers\u005cashlc00\u005cDesktop\u005cHartstra\u005cHartstra_10073GrandeFord\u005ccode\u005cTera_7\u005cvt3_code\u005cvt3_POU__check_touchcalibration.h
p66
S'69001f57502ab238b2778c495da66807'
p67
sVC:\u005cUsers\u005cashlc00\u005cDesktop\u005cHartstra\u005cHartstra_10073GrandeFord\u005ccode\u005cTera_7\u005cvt3_code\u005cvt3_POU__home_data.c
p68
S'95980268ade8ecbf7867ec73bc6b8739'
p69
sVC:\u005cUsers\u005cashlc00\u005cDesktop\u005cHartstra\u005cHartstra_10073GrandeFord\u005ccode\u005cTera_7\u005cvt3_code\u005cvt3_POU__home_data.h
p70
S'f81930e729c7b0af526b7cb29a6f9931'
p71
sVC:\u005cUsers\u005cashlc00\u005cDocuments\u005cHartstra\u005cCaldwellChevrolet_10083\u005cCaldwellChevy10083_v1.0.0\u005ccode\u005cTera_7\u005cvt3_code\u005cvt3_POU__home_data.h
p72
S'f81930e729c7b0af526b7cb29a6f9931'
p73
sVC:\u005cUsers\u005cscogs00\u005cDocuments\u005cCustomers\u005cHarstra\u005c10073_V0.2\u005cHartstra_10073GrandeFord\u005ccode\u005cTera_7\u005cvt3_code\u005cvt3_POU__slaveConfigFB_CPU1.h
p74
S'bf7d587fcfb11e681d4bdd8e899303ca'
p75
sVC:\u005cUsers\u005cscogs00\u005cDocuments\u005cCustomers\u005cHarstra\u005c10073_V0.2\u005cHartstra_10073GrandeFord\u005ccode\u005cTera_7\u005cvt3_code\u005cvt3_CAN__CanInterface.h
p76
S'4ba8c93f1ea3ac6c6208bc8f501c7287'
p77
sVC:\u005cUsers\u005cscogs00\u005cDocuments\u005cCustomers\u005cHarstra\u005c10073_V0.2\u005cHartstra_10073GrandeFord\u005ccode\u005cTera_7\u005cvt3_code\u005cvt3_CAN__CanInterface.c
p78
S'480f9d39202fdfcacb550328193696b4'
p79
sVC:\u005cUsers\u005cashlc00\u005cDocuments\u005cHartstra\u005cCaldwellChevrolet_10083\u005cCaldwellChevy10083_v1.0.0\u005ccode\u005cTera_7\u005cvt3_code\u005cvt3_Disp__ScreenFrame.h
p80
S'0d7e10ab595c0247711669e994613b79'
p81
sVC:\u005cUsers\u005cashlc00\u005cDesktop\u005cHartstra\u005cHartstra_10073GrandeFord\u005ccode\u005cTera_7\u005cvt3_code\u005cvt3_Disp__Camera2.h
p82
S'0d3b99371fccf80b618084c9c3dc197f'
p83
sVC:\u005cUsers\u005cashlc00\u005cDesktop\u005cHartstra\u005cHartstra_10073GrandeFord\u005ccode\u005cTera_7\u005cvt3_code\u005cvt3_Disp__ScreenFrame.c
p84
S'a601e389b97d3cb19940c9611cedf3e9'
p85
sVC:\u005cUsers\u005cashlc00\u005cDocuments\u005cHartstra\u005cCaldwellChevrolet_10083\u005cCaldwellChevy10083_v1.0.0\u005ccode\u005cTera_7\u005cvt3_code\u005cvt3_POU__slaveConfigFB_CPU0.h
p86
S'7e0b23c90bfcfdcdd6f178f4dbfe6c66'
p87
sVC:\u005cUsers\u005cashlc00\u005cDesktop\u005cHartstra\u005cHartstra_10073GrandeFord\u005ccode\u005cTera_7\u005cvt3_code\u005cvt3_Disp__ScreenFrame.h
p88
S'0d7e10ab595c0247711669e994613b79'
p89
sVC:\u005cUsers\u005cashlc00\u005cDesktop\u005cHartstra\u005cHartstra_10073GrandeFord\u005ccode\u005cTera_7\u005cvt3_code\u005cvt3_Disp__Camera2.c
p90
S'246e8cc7faec9bc7d501c7ee7a4e565a'
p91
sVC:\u005cUsers\u005cashlc00\u005cDocuments\u005cHartstra\u005cCaldwellChevrolet_10083\u005cCaldwellChevy10083_v1.0.0\u005ccode\u005cTera_7\u005cvt3_code\u005cvt3_Disp__ScreenFrame.c
p92
S'a601e389b97d3cb19940c9611cedf3e9'
p93
sVC:\u005cUsers\u005cashlc00\u005cDocuments\u005cHartstra\u005cCaldwellChevrolet_10083\u005cCaldwellChevy10083_v1.0.0\u005ccode\u005cTera_7\u005cvt3_code\u005cvt3_POU__slaveConfigFB_CPU0.c
p94
S'8e10f799a9bff5663a17d9491a8fe8b6'
p95
sVC:\u005cUsers\u005cscogs00\u005cDocuments\u005cCustomers\u005cHarstra\u005c10073_V0.2\u005cHartstra_10073GrandeFord\u005ccode\u005cTera_7\u005cvt3_code\u005cvt3_POU__GET_POWER_FAIL.h
p96
S'5d4714165fc4987308149061006f41b0'
p97
sVC:\u005cUsers\u005cscogs00\u005cDocuments\u005cCustomers\u005cHarstra\u005c10073_V0.2\u005cHartstra_10073GrandeFord\u005ccode\u005cTera_7\u005cvt3_code\u005cvt3_POU__INIT_SD_USB.h
p98
S'8edab598163e13617dec6af2402f6946'
p99
sVC:\u005cUsers\u005cashlc00\u005cDocuments\u005cHartstra\u005cCaldwellChevrolet_10083\u005cCaldwellChevy10083_v1.0.0\u005ccode\u005cTera_7\u005cvt3_code\u005cvt3_POU__home_data.c
p100
S'95980268ade8ecbf7867ec73bc6b8739'
p101
sVC:\u005cUsers\u005cashlc00\u005cDocuments\u005cHartstra\u005cCaldwellChevrolet_10083\u005cCaldwellChevy10083_v1.0.0\u005ccode\u005cTera_7\u005cvt3_code\u005cvt3_POU__doBrightness.h
p102
S'bd7f0e9533f882db1b8709a3dd583a12'
p103
sVC:\u005cUsers\u005cashlc00\u005cDesktop\u005cHartstra\u005cHartstra_10073GrandeFord\u005ccode\u005cTera_7\u005cvt3_code\u005cvt3_Disp__Splash.h
p104
S'd2e6dd9a5892697e0ee76d9900a6e582'
p105
sVC:\u005cUsers\u005cashlc00\u005cDesktop\u005cHartstra\u005cHartstra_10073GrandeFord\u005ccode\u005cTera_7\u005cvt3_code\u005cvt3_Disp__Splash.c
p106
S'f3f646623d968e92332ed2c65e5793b4'
p107
sVC:\u005cUsers\u005cashlc00\u005cDocuments\u005cHartstra\u005cCaldwellChevrolet_10083\u005cCaldwellChevy10083_v1.0.0\u005ccode\u005cTera_7\u005cvt3_code\u005cvt3_POU__doBrightness.c
p108
S'12d5db05feb130a14db3ab7d4b8132f4'
p109
sVC:\u005cUsers\u005cashlc00\u005cDesktop\u005cHartstra\u005cHartstra_10073GrandeFord\u005ccode\u005cTera_7\u005cvt3_code\u005cvt3_POU__doBrightness.h
p110
S'bd7f0e9533f882db1b8709a3dd583a12'
p111
sVC:\u005cUsers\u005cashlc00\u005cDesktop\u005cHartstra\u005cHartstra_10073GrandeFord\u005ccode\u005cTera_7\u005cvt3_code\u005cvt3_POU__doBrightness.c
p112
S'12d5db05feb130a14db3ab7d4b8132f4'
p113
sVC:\u005cUsers\u005cscogs00\u005cDocuments\u005cCustomers\u005cHarstra\u005c10073_V0.2\u005cHartstra_10073GrandeFord\u005ccode\u005cTera_7\u005cvt3_code\u005cvt3_POU__WRITE_EL_ENUM.h
p114
S'e27a3ba0649594da92819eca428dfeda'
p115
sVC:\u005cUsers\u005cscogs00\u005cDocuments\u005cCustomers\u005cHarstra\u005c10073_V0.2\u005cHartstra_10073GrandeFord\u005ccode\u005cTera_7\u005cvt3_code\u005cvt3_POU__slaveConfigFB_CPU0.h
p116
S'7e0b23c90bfcfdcdd6f178f4dbfe6c66'
p117
sVC:\u005cUsers\u005cashlc00\u005cDesktop\u005cHartstra\u005cHartstra_10073GrandeFord\u005ccode\u005cTera_7\u005cvt3_code\u005cvt3_POU__BYTE_TO_ASCII.h
p118
S'38cb083d133586d5c3ede0a2bded46b7'
p119
sVC:\u005cUsers\u005cscogs00\u005cDocuments\u005cCustomers\u005cHarstra\u005c10073_V0.2\u005cHartstra_10073GrandeFord\u005ccode\u005cTera_7\u005cvt3_code\u005cvt3_POU__slaveConfigFB_CPU0.c
p120
S'8e10f799a9bff5663a17d9491a8fe8b6'
p121
sVC:\u005cUsers\u005cscogs00\u005cDocuments\u005cCustomers\u005cHarstra\u005c10073_V0.2\u005cHartstra_10073GrandeFord\u005ccode\u005cTera_7\u005cvt3_code\u005cvt3_Disp__Splash.c
p122
S'f3f646623d968e92332ed2c65e5793b4'
p123
sVC:\u005cUsers\u005cscogs00\u005cDocuments\u005cCustomers\u005cHarstra\u005c10073_V0.2\u005cHartstra_10073GrandeFord\u005ccode\u005cTera_7\u005cvt3_code\u005cvt3_Disp__Splash.h
p124
S'd2e6dd9a5892697e0ee76d9900a6e582'
p125
sVC:\u005cUsers\u005cashlc00\u005cDocuments\u005cHartstra\u005cCaldwellChevrolet_10083\u005cCaldwellChevy10083_v1.0.0\u005ccode\u005cTera_7\u005cvt3_code\u005cvt3_POU__WRITE_EL.h
p126
S'1a5c19894715ccdebdfbdcd51a8c94f0'
p127
sVC:\u005cUsers\u005cashlc00\u005cDesktop\u005cHartstra\u005cHartstra_10073GrandeFord\u005ccode\u005cTera_7\u005cvt3_code\u005cvt3_POU__umountSD.h
p128
S'c78a8f025553f187d3d66c99fca1af75'
p129
sVC:\u005cUsers\u005cashlc00\u005cDesktop\u005cHartstra\u005cHartstra_10073GrandeFord\u005ccode\u005cTera_7\u005cvt3_code\u005cvt3_POU__lcdSetBlank.h
p130
S'ddfdc2e8d7ed09c43e372876a89df454'
p131
sVC:\u005cUsers\u005cscogs00\u005cDocuments\u005cCustomers\u005cHarstra\u005c10073_V0.2\u005cHartstra_10073GrandeFord\u005ccode\u005cTera_7\u005cvt3_code\u005cvt3_POU__ST_TRANSLATE.h
p132
S'ad2554746a321871bf7eb15c907c79d9'
p133
sVC:\u005cUsers\u005cashlc00\u005cDocuments\u005cHartstra\u005cCaldwellChevrolet_10083\u005cCaldwellChevy10083_v1.0.0\u005ccode\u005cTera_7\u005cvt3_code\u005cvt3_POU_common.h
p134
S'209d6507df0c407739686d04f8f9888d'
p135
sVC:\u005cUsers\u005cashlc00\u005cDocuments\u005cHartstra\u005cCaldwellChevrolet_10083\u005cCaldwellChevy10083_v1.0.0\u005ccode\u005cTera_7\u005cvt3_code\u005cvt3_palette.h
p136
S'7c7e08576438bd557f3c8a16226dc059'
p137
sVC:\u005cUsers\u005cashlc00\u005cDocuments\u005cHartstra\u005cCaldwellChevrolet_10083\u005cCaldwellChevy10083_v1.0.0\u005ccode\u005cTera_7\u005cvt3_code\u005cvt3_POU_common.c
p138
S'3727f7447665e871ed731d1fcf3ae062'
p139
sVC:\u005cUsers\u005cashlc00\u005cDocuments\u005cHartstra\u005cCaldwellChevrolet_10083\u005cCaldwellChevy10083_v1.0.0\u005ccode\u005cTera_7\u005cvt3_code\u005cvt3_palette.c
p140
S'e23c9e47ad38f1cdb9528ab6f35fd755'
p141
sVC:\u005cUsers\u005cashlc00\u005cDocuments\u005cHartstra\u005cCaldwellChevrolet_10083\u005cCaldwellChevy10083_v1.0.0\u005ccode\u005cTera_7\u005cvt3_code\u005cvt3_POU__INIT_BYTEARRAY_P.h
p142
S'4c8fa5bc6763c725ee8381222d24a28c'
p143
sVC:\u005cUsers\u005cscogs00\u005cDocuments\u005cCustomers\u005cHarstra\u005c10073_V0.2\u005cHartstra_10073GrandeFord\u005ccode\u005cTera_7\u005cvt3_code\u005cvt3_BMP__GrnButtonStyle1_0_0.h
p144
S'26de596f5675c33fb5b5239574439e2d'
p145
sVC:\u005cUsers\u005cscogs00\u005cDocuments\u005cCustomers\u005cHarstra\u005c10073_V0.2\u005cHartstra_10073GrandeFord\u005ccode\u005cTera_7\u005cvt3_code\u005cvt3_BMP__HartstraLogo1_0_0.h
p146
S'7ed3418e40475b3060ef49c0390dea9a'
p147
sVC:\u005cUsers\u005cashlc00\u005cDesktop\u005cHartstra\u005cHartstra_10073GrandeFord\u005ccode\u005cTera_7\u005cvt3_code\u005cvt3_lang.h
p148
S'a8721b58f9ff16d6cdbdf9f2df45f9fd'
p149
sVC:\u005cUsers\u005cscogs00\u005cDocuments\u005cCustomers\u005cHarstra\u005c10073_V0.2\u005cHartstra_10073GrandeFord\u005ccode\u005cTera_7\u005cvt3_code\u005cvt3_Event__Home.c
p150
S'18c58628ac2f16c3d55b0ac554437b86'
p151
sVC:\u005cUsers\u005cashlc00\u005cDesktop\u005cHartstra\u005cHartstra_10073GrandeFord\u005ccode\u005cTera_7\u005cvt3_code\u005cvt3_lang.c
p152
S'806ccd2e75a99d291663284e9ab25fa2'
p153
sVC:\u005cUsers\u005cscogs00\u005cDocuments\u005cCustomers\u005cHarstra\u005c10073_V0.2\u005cHartstra_10073GrandeFord\u005ccode\u005cTera_7\u005cvt3_code\u005cvt3_Event__Home.h
p154
S'7078b875979bede09ff3e1214670de21'
p155
sVC:\u005cUsers\u005cscogs00\u005cDocuments\u005cCustomers\u005cHarstra\u005c10073_V0.2\u005cHartstra_10073GrandeFord\u005ccode\u005cTera_7\u005cvt3_code\u005cvt3_POU.h
p156
S'a6579c7b36ae06babe016f801ddd377a'
p157
sVC:\u005cUsers\u005cashlc00\u005cDocuments\u005cHartstra\u005cCaldwellChevrolet_10083\u005cCaldwellChevy10083_v1.0.0\u005ccode\u005cTera_7\u005cvt3_code\u005cvt3_init_persistent_p_array.h
p158
S'0af64c3cc4888d6473556f273bc1f64e'
p159
sVC:\u005cUsers\u005cscogs00\u005cDocuments\u005cCustomers\u005cHarstra\u005c10073_V0.2\u005cHartstra_10073GrandeFord\u005ccode\u005cTera_7\u005cvt3_code\u005cvt3_POU.c
p160
S'e45f19b1caf1fd87ed8b9c0a5e283751'
p161
sVC:\u005cUsers\u005cashlc00\u005cDocuments\u005cHartstra\u005cCaldwellChevrolet_10083\u005cCaldwellChevy10083_v1.0.0\u005ccode\u005cTera_7\u005cvt3_code\u005cvt3_init_persistent_p_array.c
p162
S'5856020ff37d4e80adbf66a773c9c9fc'
p163
sVC:\u005cUsers\u005cashlc00\u005cDesktop\u005cHartstra\u005cHartstra_10073GrandeFord\u005ccode\u005cTera_7\u005cvt3_code\u005cvt3_POU.h
p164
S'a6579c7b36ae06babe016f801ddd377a'
p165
sVC:\u005cUsers\u005cashlc00\u005cDocuments\u005cHartstra\u005cCaldwellChevrolet_10083\u005cCaldwellChevy10083_v1.0.0\u005ccode\u005cTera_7\u005cvt3_code\u005cvt3_disp_common.h
p166
S'df9e81379d9f7f41b22f3fe1a6656d1b'
p167
sVC:\u005cUsers\u005cashlc00\u005cDocuments\u005cHartstra\u005cCaldwellChevrolet_10083\u005cCaldwellChevy10083_v1.0.0\u005ccode\u005cTera_7\u005cvt3_code\u005cvt3_POU__INIT_SD_USB.h
p168
S'8edab598163e13617dec6af2402f6946'
p169
sVC:\u005cUsers\u005cashlc00\u005cDesktop\u005cHartstra\u005cHartstra_10073GrandeFord\u005ccode\u005cTera_7\u005cvt3_code\u005cvt3_POU__GET_POWER_FAIL.h
p170
S'5d4714165fc4987308149061006f41b0'
p171
sVC:\u005cUsers\u005cashlc00\u005cDocuments\u005cHartstra\u005cCaldwellChevrolet_10083\u005cCaldwellChevy10083_v1.0.0\u005ccode\u005cTera_7\u005cvt3_code\u005cvt3_BMP__GryButtonStyle1_0_0.h
p172
S'1399adba65e3b4e78ba959714327f2c9'
p173
sVC:\u005cUsers\u005cscogs00\u005cDocuments\u005cCustomers\u005cHarstra\u005c10073_V0.2\u005cHartstra_10073GrandeFord\u005ccode\u005cTera_7\u005cvt3_code\u005cvt3_POU__WRITE_EL_TO_USB.h
p174
S'c0190e515cc820176bb4d4a16e452b73'
p175
sVC:\u005cUsers\u005cashlc00\u005cDocuments\u005cHartstra\u005cCaldwellChevrolet_10083\u005cCaldwellChevy10083_v1.0.0\u005ccode\u005cTera_7\u005cvt3_code\u005cvt3_POU__get_prj_version_byte.h
p176
S'fb42ebcb2994deaa0c678f0385485fa1'
p177
sVC:\u005cUsers\u005cashlc00\u005cDesktop\u005cHartstra\u005cHartstra_10073GrandeFord\u005ccode\u005cTera_7\u005cvt3_code\u005cvt3_POU__setup_data.h
p178
S'f5c57c650f37a51c317c0b7aae640654'
p179
sVC:\u005cUsers\u005cashlc00\u005cDesktop\u005cHartstra\u005cHartstra_10073GrandeFord\u005ccode\u005cTera_7\u005cvt3_code\u005cvt3_POU__setup_data.c
p180
S'5ec975ebafb6a0aae91ab3812cd81c7d'
p181
sVC:\u005cUsers\u005cscogs00\u005cDocuments\u005cCustomers\u005cHarstra\u005c10073_V0.2\u005cHartstra_10073GrandeFord\u005ccode\u005cTera_7\u005cvt3_code\u005cvt3_POU__check_touchcalibration.h
p182
S'69001f57502ab238b2778c495da66807'
p183
sVC:\u005cUsers\u005cscogs00\u005cDocuments\u005cCustomers\u005cHarstra\u005c10073_V0.2\u005cHartstra_10073GrandeFord\u005ccode\u005cTera_7\u005cvt3_code\u005cvt3_POU_string_typedef.h
p184
S'878acfc1d6d7d5859feaefbb3f0f1548'
p185
sVC:\u005cUsers\u005cashlc00\u005cDocuments\u005cHartstra\u005cCaldwellChevrolet_10083\u005cCaldwellChevy10083_v1.0.0\u005ccode\u005cTera_7\u005cvt3_code\u005cvt3_POU__ARR_BYTE_version.h
p186
S'd47de601d5de58432479f1de0cde1c82'
p187
sVC:\u005cUsers\u005cashlc00\u005cDesktop\u005cHartstra\u005cHartstra_10073GrandeFord\u005ccode\u005cTera_7\u005cvt3_code\u005cvt3_POU_common.c
p188
S'3727f7447665e871ed731d1fcf3ae062'
p189
sVC:\u005cUsers\u005cscogs00\u005cDocuments\u005cCustomers\u005cHarstra\u005c10073_V0.2\u005cHartstra_10073GrandeFord\u005ccode\u005cTera_7\u005cvt3_code\u005cvt3_Event__Camera2.c
p190
S'40f1b90c65405039321036e0406a4d91'
p191
sVC:\u005cUsers\u005cashlc00\u005cDocuments\u005cHartstra\u005cCaldwellChevrolet_10083\u005cCaldwellChevy10083_v1.0.0\u005ccode\u005cTera_7\u005cvt3_code\u005cvt3_Event__Camera2.c
p192
S'40f1b90c65405039321036e0406a4d91'
p193
sVC:\u005cUsers\u005cashlc00\u005cDesktop\u005cHartstra\u005cHartstra_10073GrandeFord\u005ccode\u005cTera_7\u005cvt3_code\u005cvt3_POU_common.h
p194
S'209d6507df0c407739686d04f8f9888d'
p195
sVC:\u005cUsers\u005cashlc00\u005cDocuments\u005cHartstra\u005cCaldwellChevrolet_10083\u005cCaldwellChevy10083_v1.0.0\u005ccode\u005cTera_7\u005cvt3_code\u005cvt3_Event__Camera2.h
p196
S'1f4b65e6b3cc84b31de23f0668d5427f'
p197
sVC:\u005cUsers\u005cashlc00\u005cDesktop\u005cHartstra\u005cHartstra_10073GrandeFord\u005ccode\u005cTera_7\u005cvt3_code\u005cvt3_POU__task100.h
p198
S'3fe5ad71eaf99f37093e43adb00712c7'
p199
sVC:\u005cUsers\u005cashlc00\u005cDesktop\u005cHartstra\u005cHartstra_10073GrandeFord\u005ccode\u005cTera_7\u005cvt3_code\u005cvt3_var_version.c
p200
S'80d3ba5005a11ae99f1b142f3971c19a'
p201
sVC:\u005cUsers\u005cashlc00\u005cDocuments\u005cHartstra\u005cCaldwellChevrolet_10083\u005cCaldwellChevy10083_v1.0.0\u005ccode\u005cTera_7\u005cvt3_code\u005cvt3_POU__BYTE_TO_ASCII.h
p202
S'38cb083d133586d5c3ede0a2bded46b7'
p203
sVC:\u005cUsers\u005cscogs00\u005cDocuments\u005cCustomers\u005cHarstra\u005c10073_V0.2\u005cHartstra_10073GrandeFord\u005ccode\u005cTera_7\u005cvt3_code\u005cvt3_palette.h
p204
S'7c7e08576438bd557f3c8a16226dc059'
p205
sVC:\u005cUsers\u005cscogs00\u005cDocuments\u005cCustomers\u005cHarstra\u005c10073_V0.2\u005cHartstra_10073GrandeFord\u005ccode\u005cTera_7\u005cvt3_code\u005cvt3_palette.c
p206
S'e23c9e47ad38f1cdb9528ab6f35fd755'
p207
sVC:\u005cUsers\u005cashlc00\u005cDocuments\u005cHartstra\u005cCaldwellChevrolet_10083\u005cCaldwellChevy10083_v1.0.0\u005ccode\u005cTera_7\u005cvt3_code\u005cvt3_POU__INIT_BYTEARRAY_R.h
p208
S'5df33f87a18e04cca24cfbcb60efff6d'
p209
sVC:\u005cUsers\u005cashlc00\u005cDesktop\u005cHartstra\u005cHartstra_10073GrandeFord\u005ccode\u005cTera_7\u005cvt3_code\u005cvt3_POU__slaveConfigFB_CPU0.c
p210
S'8e10f799a9bff5663a17d9491a8fe8b6'
p211
sVC:\u005cUsers\u005cashlc00\u005cDesktop\u005cHartstra\u005cHartstra_10073GrandeFord\u005ccode\u005cTera_7\u005cvt3_code\u005cvt3_POU__slaveConfigFB_CPU0.h
p212
S'7e0b23c90bfcfdcdd6f178f4dbfe6c66'
p213
sVC:\u005cUsers\u005cashlc00\u005cDocuments\u005cHartstra\u005cCaldwellChevrolet_10083\u005cCaldwellChevy10083_v1.0.0\u005ccode\u005cTera_7\u005cvt3_code\u005cvt3_POU__assignIO.c
p214
S'a32605ea6bcee285262c626e5936781f'
p215
sVC:\u005cUsers\u005cashlc00\u005cDocuments\u005cHartstra\u005cCaldwellChevrolet_10083\u005cCaldwellChevy10083_v1.0.0\u005ccode\u005cTera_7\u005cvt3_code\u005cvt3_POU__assignIO.h
p216
S'b674e5e7034098ea0140e96fd8ebd691'
p217
sVC:\u005cUsers\u005cashlc00\u005cDocuments\u005cHartstra\u005cCaldwellChevrolet_10083\u005cCaldwellChevy10083_v1.0.0\u005ccode\u005cTera_7\u005cvt3_code\u005cvt3_slaves.c
p218
S'1d50fb0927b3a06b6df02ef6f2ed16ab'
p219
sVC:\u005cUsers\u005cashlc00\u005cDocuments\u005cHartstra\u005cCaldwellChevrolet_10083\u005cCaldwellChevy10083_v1.0.0\u005ccode\u005cTera_7\u005cvt3_code\u005cvt3_POU__setup_data.c
p220
S'5ec975ebafb6a0aae91ab3812cd81c7d'
p221
sVC:\u005cUsers\u005cscogs00\u005cDocuments\u005cCustomers\u005cHarstra\u005c10073_V0.2\u005cHartstra_10073GrandeFord\u005ccode\u005cTera_7\u005cvt3_code\u005cvt3_POU__iocore_data.c
p222
S'e22bd8868ad8f87fdab2c083a14e38e3'
p223
sVC:\u005cUsers\u005cscogs00\u005cDocuments\u005cCustomers\u005cHarstra\u005c10073_V0.2\u005cHartstra_10073GrandeFord\u005ccode\u005cTera_7\u005cvt3_code\u005cvt3_Event__Camera.h
p224
S'24afebeae292e0690e20ff47a23804e6'
p225
sVC:\u005cUsers\u005cscogs00\u005cDocuments\u005cCustomers\u005cHarstra\u005c10073_V0.2\u005cHartstra_10073GrandeFord\u005ccode\u005cTera_7\u005cvt3_code\u005cvt3_POU__iocore_data.h
p226
S'1343d4a622945dc0ed20745d5f00732e'
p227
sVC:\u005cUsers\u005cashlc00\u005cDocuments\u005cHartstra\u005cCaldwellChevrolet_10083\u005cCaldwellChevy10083_v1.0.0\u005ccode\u005cTera_7\u005cvt3_code\u005cvt3_POU__setup_data.h
p228
S'f5c57c650f37a51c317c0b7aae640654'
p229
sVC:\u005cUsers\u005cscogs00\u005cDocuments\u005cCustomers\u005cHarstra\u005c10073_V0.2\u005cHartstra_10073GrandeFord\u005ccode\u005cTera_7\u005cvt3_code\u005cvt3_Event__Camera.c
p230
S'35fc6ceb27f4b96ad27533a9ae045656'
p231
sVC:\u005cUsers\u005cscogs00\u005cDocuments\u005cCustomers\u005cHarstra\u005c10073_V0.2\u005cHartstra_10073GrandeFord\u005ccode\u005cTera_7\u005cvt3_code\u005cvt3_BMP__HartstraLogo2_0_0.h
p232
S'd4654c783b6b99309eb0c6a7ea13d6d8'
p233
sVC:\u005cUsers\u005cscogs00\u005cDocuments\u005cCustomers\u005cHarstra\u005c10073_V0.2\u005cHartstra_10073GrandeFord\u005ccode\u005cTera_7\u005cvt3_code\u005cvt3_POU__global_data.h
p234
S'fb7dde5f96d993cb8a1fc78dba76af73'
p235
sVC:\u005cUsers\u005cashlc00\u005cDesktop\u005cHartstra\u005cHartstra_10073GrandeFord\u005ccode\u005cTera_7\u005cvt3_code\u005cvt3_CAN.c
p236
S'51204dc24c4364573301fe86f6f67bea'
p237
sVC:\u005cUsers\u005cashlc00\u005cDesktop\u005cHartstra\u005cHartstra_10073GrandeFord\u005ccode\u005cTera_7\u005cvt3_code\u005cvt3_Event__Setup.h
p238
S'3d9fa41bdbb7786cce09e052f7af855c'
p239
sVC:\u005cUsers\u005cscogs00\u005cDocuments\u005cCustomers\u005cHarstra\u005c10073_V0.2\u005cHartstra_10073GrandeFord\u005ccode\u005cTera_7\u005cvt3_code\u005cvt3_POU__global_data.c
p240
S'b5c00671f15d63f6dbb69735e918e056'
p241
sVC:\u005cUsers\u005cashlc00\u005cDesktop\u005cHartstra\u005cHartstra_10073GrandeFord\u005ccode\u005cTera_7\u005cvt3_code\u005cvt3_disp_events.c
p242
S'd8feb897d0c5d3e5c1c57a9238077d73'
p243
sVC:\u005cUsers\u005cashlc00\u005cDesktop\u005cHartstra\u005cHartstra_10073GrandeFord\u005ccode\u005cTera_7\u005cvt3_code\u005cvt3_CAN_common.h
p244
S'5a7dcad396f420054a22da23ceedb260'
p245
sVC:\u005cUsers\u005cscogs00\u005cDocuments\u005cCustomers\u005cHarstra\u005c10073_V0.2\u005cHartstra_10073GrandeFord\u005ccode\u005cTera_7\u005cvt3_code\u005cvt3_Disp__ScreenFrame.c
p246
S'a601e389b97d3cb19940c9611cedf3e9'
p247
sVC:\u005cUsers\u005cscogs00\u005cDocuments\u005cCustomers\u005cHarstra\u005c10073_V0.2\u005cHartstra_10073GrandeFord\u005ccode\u005cTera_7\u005cvt3_code\u005cvt3_Disp__ScreenFrame.h
p248
S'0d7e10ab595c0247711669e994613b79'
p249
sVC:\u005cUsers\u005cashlc00\u005cDesktop\u005cHartstra\u005cHartstra_10073GrandeFord\u005ccode\u005cTera_7\u005cvt3_code\u005cvt3_CAN_common.c
p250
S'dc02149e06a660e797b5902ccd767106'
p251
sVC:\u005cUsers\u005cscogs00\u005cDocuments\u005cCustomers\u005cHarstra\u005c10073_V0.2\u005cHartstra_10073GrandeFord\u005ccode\u005cTera_7\u005cvt3_code\u005cvt3_fonts.c
p252
S'59e544d226ae179dd444bd1c6c851d7e'
p253
sVC:\u005cUsers\u005cscogs00\u005cDocuments\u005cCustomers\u005cHarstra\u005c10073_V0.2\u005cHartstra_10073GrandeFord\u005ccode\u005cTera_7\u005cvt3_code\u005cvt3_fonts.h
p254
S'2d4cc764408dc265a605b94c365b1284'
p255
sVC:\u005cUsers\u005cashlc00\u005cDocuments\u005cHartstra\u005cCaldwellChevrolet_10083\u005cCaldwellChevy10083_v1.0.0\u005ccode\u005cTera_7\u005cvt3_code\u005cvt3_disp.h
p256
S'9daa7707500df2621658309731a99da4'
p257
sVC:\u005cUsers\u005cashlc00\u005cDocuments\u005cHartstra\u005cCaldwellChevrolet_10083\u005cCaldwellChevy10083_v1.0.0\u005ccode\u005cTera_7\u005cvt3_code\u005cvt3_Event__Splash.h
p258
S'17ab0e2a699e322908b2f85223eae64e'
p259
sVC:\u005cUsers\u005cashlc00\u005cDocuments\u005cHartstra\u005cCaldwellChevrolet_10083\u005cCaldwellChevy10083_v1.0.0\u005ccode\u005cTera_7\u005cvt3_code\u005cvt3_Event__Splash.c
p260
S'b98d7360c7c2c13c30b9d57c66774b60'
p261
sVC:\u005cUsers\u005cashlc00\u005cDesktop\u005cHartstra\u005cHartstra_10073GrandeFord\u005ccode\u005cTera_7\u005cvt3_code\u005cvt3_POU__global_data.c
p262
S'b5c00671f15d63f6dbb69735e918e056'
p263
sVC:\u005cUsers\u005cashlc00\u005cDesktop\u005cHartstra\u005cHartstra_10073GrandeFord\u005ccode\u005cTera_7\u005cvt3_code\u005cvt3_POU__global_data.h
p264
S'fb7dde5f96d993cb8a1fc78dba76af73'
p265
sVC:\u005cUsers\u005cashlc00\u005cDesktop\u005cHartstra\u005cHartstra_10073GrandeFord\u005ccode\u005cTera_7\u005cvt3_code\u005cvt3_POU.c
p266
S'e45f19b1caf1fd87ed8b9c0a5e283751'
p267
sVC:\u005cUsers\u005cashlc00\u005cDocuments\u005cHartstra\u005cCaldwellChevrolet_10083\u005cCaldwellChevy10083_v1.0.0\u005ccode\u005cTera_7\u005cvt3_code\u005cvt3_Disp__Home.h
p268
S'af709a7051d8e5a5fdb98147df046144'
p269
sVC:\u005cUsers\u005cscogs00\u005cDocuments\u005cCustomers\u005cHarstra\u005c10073_V0.2\u005cHartstra_10073GrandeFord\u005ccode\u005cTera_7\u005cvt3_code\u005cvt3_slaves.c
p270
S'1d50fb0927b3a06b6df02ef6f2ed16ab'
p271
sVC:\u005cUsers\u005cashlc00\u005cDesktop\u005cHartstra\u005cHartstra_10073GrandeFord\u005ccode\u005cTera_7\u005cvt3_code\u005cvt3_POU__INIT_SD_USB.h
p272
S'8edab598163e13617dec6af2402f6946'
p273
sVC:\u005cUsers\u005cscogs00\u005cDocuments\u005cCustomers\u005cHarstra\u005c10073_V0.2\u005cHartstra_10073GrandeFord\u005ccode\u005cTera_7\u005cvt3_code\u005cvt3_CAN_common.c
p274
S'dc02149e06a660e797b5902ccd767106'
p275
sVC:\u005cUsers\u005cashlc00\u005cDesktop\u005cHartstra\u005cHartstra_10073GrandeFord\u005ccode\u005cTera_7\u005cvt3_code\u005cvt3_POU__REBOOT.h
p276
S'8d28313461470d0afae1935a3afce661'
p277
sVC:\u005cUsers\u005cscogs00\u005cDocuments\u005cCustomers\u005cHarstra\u005c10073_V0.2\u005cHartstra_10073GrandeFord\u005ccode\u005cTera_7\u005cvt3_code\u005cvt3_POU__WRITE_EL.h
p278
S'1a5c19894715ccdebdfbdcd51a8c94f0'
p279
sVC:\u005cUsers\u005cashlc00\u005cDocuments\u005cHartstra\u005cCaldwellChevrolet_10083\u005cCaldwellChevy10083_v1.0.0\u005ccode\u005cTera_7\u005cvt3_code\u005cvt3_POU__WRITE_EL_PRIVATE.h
p280
S'28304ebffb0556ce574c9a70b46bcdcd'
p281
sVC:\u005cUsers\u005cscogs00\u005cDocuments\u005cCustomers\u005cHarstra\u005c10073_V0.2\u005cHartstra_10073GrandeFord\u005ccode\u005cTera_7\u005cvt3_code\u005cvt3_CAN_common.h
p282
S'5a7dcad396f420054a22da23ceedb260'
p283
sVC:\u005cUsers\u005cscogs00\u005cDocuments\u005cCustomers\u005cHarstra\u005c10073_V0.2\u005cHartstra_10073GrandeFord\u005ccode\u005cTera_7\u005cvt3_code\u005cvt3_POU_common.h
p284
S'209d6507df0c407739686d04f8f9888d'
p285
sVC:\u005cUsers\u005cscogs00\u005cDocuments\u005cCustomers\u005cHarstra\u005c10073_V0.2\u005cHartstra_10073GrandeFord\u005ccode\u005cTera_7\u005cvt3_code\u005cvt3_POU_common.c
p286
S'3727f7447665e871ed731d1fcf3ae062'
p287
sVC:\u005cUsers\u005cashlc00\u005cDocuments\u005cHartstra\u005cCaldwellChevrolet_10083\u005cCaldwellChevy10083_v1.0.0\u005ccode\u005cTera_7\u005cvt3_code\u005cvt3_Disp__Home.c
p288
S'a29e376b1ff278772dd71f880a563005'
p289
sVC:\u005cUsers\u005cashlc00\u005cDocuments\u005cHartstra\u005cCaldwellChevrolet_10083\u005cCaldwellChevy10083_v1.0.0\u005ccode\u005cTera_7\u005cvt3_code\u005cvt3_POU__global_data.h
p290
S'fb7dde5f96d993cb8a1fc78dba76af73'
p291
sVC:\u005cUsers\u005cashlc00\u005cDocuments\u005cHartstra\u005cCaldwellChevrolet_10083\u005cCaldwellChevy10083_v1.0.0\u005ccode\u005cTera_7\u005cvt3_code\u005cvt3_disp_events.c
p292
S'd8feb897d0c5d3e5c1c57a9238077d73'
p293
sVC:\u005cUsers\u005cashlc00\u005cDesktop\u005cHartstra\u005cHartstra_10073GrandeFord\u005ccode\u005cTera_7\u005cvt3_code\u005cvt3_Event__Camera.h
p294
S'24afebeae292e0690e20ff47a23804e6'
p295
sVC:\u005cUsers\u005cashlc00\u005cDocuments\u005cHartstra\u005cCaldwellChevrolet_10083\u005cCaldwellChevy10083_v1.0.0\u005ccode\u005cTera_7\u005cvt3_code\u005cvt3_POU__global_data.c
p296
S'b5c00671f15d63f6dbb69735e918e056'
p297
sVC:\u005cUsers\u005cscogs00\u005cDocuments\u005cCustomers\u005cHarstra\u005c10073_V0.2\u005cHartstra_10073GrandeFord\u005ccode\u005cTera_7\u005cvt3_code\u005cvt3_images.h
p298
S'da3920d825848d82e66ab231ae998a99'
p299
sVC:\u005cUsers\u005cashlc00\u005cDesktop\u005cHartstra\u005cHartstra_10073GrandeFord\u005ccode\u005cTera_7\u005cvt3_code\u005cvt3_Event__Camera.c
p300
S'35fc6ceb27f4b96ad27533a9ae045656'
p301
sVC:\u005cUsers\u005cashlc00\u005cDocuments\u005cHartstra\u005cCaldwellChevrolet_10083\u005cCaldwellChevy10083_v1.0.0\u005ccode\u005cTera_7\u005cvt3_code\u005cvt3_vars.h
p302
S'e9ebf3ec6ee16bbb55c2782401454b25'
p303
sVC:\u005cUsers\u005cscogs00\u005cDocuments\u005cCustomers\u005cHarstra\u005c10073_V0.2\u005cHartstra_10073GrandeFord\u005ccode\u005cTera_7\u005cvt3_code\u005cvt3_POU__slaveConfig.h
p304
S'bf079b10366ee781141b3c95541c11ca'
p305
sVC:\u005cUsers\u005cscogs00\u005cDocuments\u005cCustomers\u005cHarstra\u005c10073_V0.2\u005cHartstra_10073GrandeFord\u005ccode\u005cTera_7\u005cvt3_code\u005cvt3_POU__home_data.h
p306
S'f81930e729c7b0af526b7cb29a6f9931'
p307
sVC:\u005cUsers\u005cashlc00\u005cDocuments\u005cHartstra\u005cCaldwellChevrolet_10083\u005cCaldwellChevy10083_v1.0.0\u005ccode\u005cTera_7\u005cvt3_code\u005cvt3_vars.c
p308
S'71fe5f86e067840a52d1901b933fa1fe'
p309
sVC:\u005cUsers\u005cashlc00\u005cDocuments\u005cHartstra\u005cCaldwellChevrolet_10083\u005cCaldwellChevy10083_v1.0.0\u005ccode\u005cTera_7\u005cvt3_code\u005cvt3_POU__REBOOT.h
p310
S'8d28313461470d0afae1935a3afce661'
p311
sVC:\u005cUsers\u005cashlc00\u005cDesktop\u005cHartstra\u005cHartstra_10073GrandeFord\u005ccode\u005cTera_7\u005cvt3_code\u005cvt3_POU__get_prj_version.h
p312
S'a49e34ca22601f3771b1a95024c0c979'
p313
sVC:\u005cUsers\u005cscogs00\u005cDocuments\u005cCustomers\u005cHarstra\u005c10073_V0.2\u005cHartstra_10073GrandeFord\u005ccode\u005cTera_7\u005cvt3_code\u005cvt3_POU__home_data.c
p314
S'95980268ade8ecbf7867ec73bc6b8739'
p315
sVC:\u005cUsers\u005cscogs00\u005cDocuments\u005cCustomers\u005cHarstra\u005c10073_V0.2\u005cHartstra_10073GrandeFord\u005ccode\u005cTera_7\u005cvt3_code\u005cvt3_POU__slaveConfig.c
p316
S'250282194da6b1fd2d12a0260069806d'
p317
sVC:\u005cUsers\u005cscogs00\u005cDocuments\u005cCustomers\u005cHarstra\u005c10073_V0.2\u005cHartstra_10073GrandeFord\u005ccode\u005cTera_7\u005cvt3_code\u005cvt3_IO.c
p318
S'ddbc987bc2fecbd3bc3ee3e13380de89'
p319
sVC:\u005cUsers\u005cscogs00\u005cDocuments\u005cCustomers\u005cHarstra\u005c10073_V0.2\u005cHartstra_10073GrandeFord\u005ccode\u005cTera_7\u005cvt3_code\u005cvt3_IO.h
p320
S'f0b713b9daa93742b2b221371a7e3ad2'
p321
sVC:\u005cUsers\u005cashlc00\u005cDesktop\u005cHartstra\u005cHartstra_10073GrandeFord\u005ccode\u005cTera_7\u005cvt3_code\u005cvt3_Disp__Setup.h
p322
S'a1a0147014ae043f4bd619c057d18880'
p323
sVC:\u005cUsers\u005cashlc00\u005cDesktop\u005cHartstra\u005cHartstra_10073GrandeFord\u005ccode\u005cTera_7\u005cvt3_code\u005cvt3_Disp__Setup.c
p324
S'9ef62c83b423b82e9103f9297d05f8e7'
p325
sVC:\u005cUsers\u005cashlc00\u005cDesktop\u005cHartstra\u005cHartstra_10073GrandeFord\u005ccode\u005cTera_7\u005cvt3_code\u005cvt3_BMP__HartstraLogo2_0_0.h
p326
S'd4654c783b6b99309eb0c6a7ea13d6d8'
p327
sVC:\u005cUsers\u005cscogs00\u005cDocuments\u005cCustomers\u005cHarstra\u005c10073_V0.2\u005cHartstra_10073GrandeFord\u005ccode\u005cTera_7\u005cvt3_code\u005cvt3_POU__PLC_PRG.c
p328
S'817fb867ffd52e0f8d8d1176be57970a'
p329
sVC:\u005cUsers\u005cashlc00\u005cDocuments\u005cHartstra\u005cCaldwellChevrolet_10083\u005cCaldwellChevy10083_v1.0.0\u005ccode\u005cTera_7\u005cvt3_code\u005cvt3_POU__splash_data.h
p330
S'06a56c5d97951cdf3f7735cdc55434aa'
p331
sVC:\u005cUsers\u005cashlc00\u005cDesktop\u005cHartstra\u005cHartstra_10073GrandeFord\u005ccode\u005cTera_7\u005cvt3_code\u005cvt3_Disp__Home.h
p332
S'ef2af9646b75d0e8288471d29864ede5'
p333
sVC:\u005cUsers\u005cashlc00\u005cDocuments\u005cHartstra\u005cCaldwellChevrolet_10083\u005cCaldwellChevy10083_v1.0.0\u005ccode\u005cTera_7\u005cvt3_code\u005cvt3_fonts.h
p334
S'9a999f42a61d0a9c72224d606535fa0e'
p335
sVC:\u005cUsers\u005cashlc00\u005cDocuments\u005cHartstra\u005cCaldwellChevrolet_10083\u005cCaldwellChevy10083_v1.0.0\u005ccode\u005cTera_7\u005cvt3_code\u005cvt3_POU__splash_data.c
p336
S'831367c3729466e584ad1a15a8c0b6dc'
p337
sVC:\u005cUsers\u005cscogs00\u005cDocuments\u005cCustomers\u005cHarstra\u005c10073_V0.2\u005cHartstra_10073GrandeFord\u005ccode\u005cTera_7\u005cvt3_code\u005cvt3_POU__PLC_PRG.h
p338
S'1f9f56124d974ed3d859577727aeeef3'
p339
sVC:\u005cUsers\u005cashlc00\u005cDocuments\u005cHartstra\u005cCaldwellChevrolet_10083\u005cCaldwellChevy10083_v1.0.0\u005ccode\u005cTera_7\u005cvt3_code\u005cvt3_fonts.c
p340
S'761742d8f09898921923e1eb0737615f'
p341
sVC:\u005cUsers\u005cashlc00\u005cDesktop\u005cHartstra\u005cHartstra_10073GrandeFord\u005ccode\u005cTera_7\u005cvt3_code\u005cvt3_Disp__Home.c
p342
S'c8ad02c6b6c0dea5c34f3b1116cfe0ba'
p343
sVC:\u005cUsers\u005cashlc00\u005cDocuments\u005cHartstra\u005cCaldwellChevrolet_10083\u005cCaldwellChevy10083_v1.0.0\u005ccode\u005cTera_7\u005cvt3_code\u005cvt3_Event__Camera.h
p344
S'24afebeae292e0690e20ff47a23804e6'
p345
sVC:\u005cUsers\u005cashlc00\u005cDocuments\u005cHartstra\u005cCaldwellChevrolet_10083\u005cCaldwellChevy10083_v1.0.0\u005ccode\u005cTera_7\u005cvt3_code\u005cvt3_Event__Camera.c
p346
S'35fc6ceb27f4b96ad27533a9ae045656'
p347
sVC:\u005cUsers\u005cashlc00\u005cDesktop\u005cHartstra\u005cHartstra_10073GrandeFord\u005ccode\u005cTera_7\u005cvt3_code\u005cvt3_disp.h
p348
S'9daa7707500df2621658309731a99da4'
p349
sVC:\u005cUsers\u005cscogs00\u005cDocuments\u005cCustomers\u005cHarstra\u005c10073_V0.2\u005cHartstra_10073GrandeFord\u005ccode\u005cTera_7\u005cvt3_code\u005cvt3_BMP__BluButtonStyle1_0_0.h
p350
S'1ef78b26f668a658b2f7b009f54003dc'
p351
sVC:\u005cUsers\u005cscogs00\u005cDocuments\u005cCustomers\u005cHarstra\u005c10073_V0.2\u005cHartstra_10073GrandeFord\u005ccode\u005cTera_7\u005cvt3_code\u005cvt3_Event__Splash.h
p352
S'17ab0e2a699e322908b2f85223eae64e'
p353
sVC:\u005cUsers\u005cashlc00\u005cDesktop\u005cHartstra\u005cHartstra_10073GrandeFord\u005ccode\u005cTera_7\u005cvt3_code\u005cvt3_Event__Home.c
p354
S'2674ebe4b7d44c72418a560056d7395e'
p355
sVC:\u005cUsers\u005cscogs00\u005cDocuments\u005cCustomers\u005cHarstra\u005c10073_V0.2\u005cHartstra_10073GrandeFord\u005ccode\u005cTera_7\u005cvt3_code\u005cvt3_Event__Splash.c
p356
S'b98d7360c7c2c13c30b9d57c66774b60'
p357
sVC:\u005cUsers\u005cashlc00\u005cDocuments\u005cHartstra\u005cCaldwellChevrolet_10083\u005cCaldwellChevy10083_v1.0.0\u005ccode\u005cTera_7\u005cvt3_code\u005cvt3_POU__WRITE_EL_ENUM.h
p358
S'e27a3ba0649594da92819eca428dfeda'
p359
sVC:\u005cUsers\u005cashlc00\u005cDocuments\u005cHartstra\u005cCaldwellChevrolet_10083\u005cCaldwellChevy10083_v1.0.0\u005ccode\u005cTera_7\u005cvt3_code\u005cvt3_BMP__RedButtonStyle1_0_0.h
p360
S'd5046e9cbc94173131f252fa41a33acf'
p361
sVC:\u005cUsers\u005cashlc00\u005cDocuments\u005cHartstra\u005cCaldwellChevrolet_10083\u005cCaldwellChevy10083_v1.0.0\u005ccode\u005cTera_7\u005cvt3_code\u005cvt3_alarms.c
p362
S'924fb0eff633b8ff56d9a54f1a7f8ed4'
p363
sVC:\u005cUsers\u005cscogs00\u005cDocuments\u005cCustomers\u005cHarstra\u005c10073_V0.2\u005cHartstra_10073GrandeFord\u005ccode\u005cTera_7\u005cvt3_code\u005cvt3_Disp__Home.c
p364
S'ec4b64297a99d0f5329c8b93c0f05d17'
p365
sVC:\u005cUsers\u005cscogs00\u005cDocuments\u005cCustomers\u005cHarstra\u005c10073_V0.2\u005cHartstra_10073GrandeFord\u005ccode\u005cTera_7\u005cvt3_code\u005cvt3_Disp__Home.h
p366
S'8d21824d5756afd160cc548edd2e118f'
p367
sVC:\u005cUsers\u005cscogs00\u005cDocuments\u005cCustomers\u005cHarstra\u005c10073_V0.2\u005cHartstra_10073GrandeFord\u005ccode\u005cTera_7\u005cvt3_code\u005cvt3_BMP__RedButtonStyle1_0_0.h
p368
S'd5046e9cbc94173131f252fa41a33acf'
p369
sVC:\u005cUsers\u005cscogs00\u005cDocuments\u005cCustomers\u005cHarstra\u005c10073_V0.2\u005cHartstra_10073GrandeFord\u005ccode\u005cTera_7\u005cvt3_code\u005cvt3_POU__assignIO.h
p370
S'b674e5e7034098ea0140e96fd8ebd691'
p371
sVC:\u005cUsers\u005cscogs00\u005cDocuments\u005cCustomers\u005cHarstra\u005c10073_V0.2\u005cHartstra_10073GrandeFord\u005ccode\u005cTera_7\u005cvt3_code\u005cvt3_vars.c
p372
S'999d9d8d689c22fad7a59149af58b9fa'
p373
sVC:\u005cUsers\u005cashlc00\u005cDocuments\u005cHartstra\u005cCaldwellChevrolet_10083\u005cCaldwellChevy10083_v1.0.0\u005ccode\u005cTera_7\u005cvt3_code\u005cvt3_POU__interpol.c
p374
S'f6e11149bc04c40fe5fcaf31b1231cbf'
p375
sVC:\u005cUsers\u005cashlc00\u005cDocuments\u005cHartstra\u005cCaldwellChevrolet_10083\u005cCaldwellChevy10083_v1.0.0\u005ccode\u005cTera_7\u005cvt3_code\u005cvt3_BMP__HartstraLogo1_0_0.h
p376
S'7ed3418e40475b3060ef49c0390dea9a'
p377
sVC:\u005cUsers\u005cashlc00\u005cDocuments\u005cHartstra\u005cCaldwellChevrolet_10083\u005cCaldwellChevy10083_v1.0.0\u005ccode\u005cTera_7\u005cvt3_code\u005cvt3_POU__interpol.h
p378
S'd692c1ce268a9e801aac9576ba8dcdff'
p379
sVC:\u005cUsers\u005cscogs00\u005cDocuments\u005cCustomers\u005cHarstra\u005c10073_V0.2\u005cHartstra_10073GrandeFord\u005ccode\u005cTera_7\u005cvt3_code\u005cvt3_vars.h
p380
S'9bf418ca7a428df2e4772777bfeceac7'
p381
sVC:\u005cUsers\u005cscogs00\u005cDocuments\u005cCustomers\u005cHarstra\u005c10073_V0.2\u005cHartstra_10073GrandeFord\u005ccode\u005cTera_7\u005cvt3_code\u005cvt3_POU__assignIO.c
p382
S'a32605ea6bcee285262c626e5936781f'
p383
sVC:\u005cUsers\u005cscogs00\u005cDocuments\u005cCustomers\u005cHarstra\u005c10073_V0.2\u005cHartstra_10073GrandeFord\u005ccode\u005cTera_7\u005cvt3_code\u005cvt3_BMP__YlwButtonStyle1_0_0.h
p384
S'7c954ba97a5eaef59669f9bd93a13a88'
p385
sVC:\u005cUsers\u005cashlc00\u005cDocuments\u005cHartstra\u005cCaldwellChevrolet_10083\u005cCaldwellChevy10083_v1.0.0\u005ccode\u005cTera_7\u005cvt3_code\u005cvt3_images.h
p386
S'da3920d825848d82e66ab231ae998a99'
p387
sVC:\u005cUsers\u005cashlc00\u005cDocuments\u005cHartstra\u005cCaldwellChevrolet_10083\u005cCaldwellChevy10083_v1.0.0\u005ccode\u005cTera_7\u005cvt3_code\u005cvt3_POU__lcdSetBlank.h
p388
S'ddfdc2e8d7ed09c43e372876a89df454'
p389
sVC:\u005cUsers\u005cashlc00\u005cDesktop\u005cHartstra\u005cHartstra_10073GrandeFord\u005ccode\u005cTera_7\u005cvt3_code\u005cvt3_init_persistent_p_array.c
p390
S'5856020ff37d4e80adbf66a773c9c9fc'
p391
sVC:\u005cUsers\u005cashlc00\u005cDesktop\u005cHartstra\u005cHartstra_10073GrandeFord\u005ccode\u005cTera_7\u005cvt3_code\u005cvt3_init_persistent_p_array.h
p392
S'0af64c3cc4888d6473556f273bc1f64e'
p393
sVC:\u005cUsers\u005cashlc00\u005cDesktop\u005cHartstra\u005cHartstra_10073GrandeFord\u005ccode\u005cTera_7\u005cvt3_code\u005cvt3_BMP__GrnButtonStyle1_0_0.h
p394
S'26de596f5675c33fb5b5239574439e2d'
p395
sVC:\u005cUsers\u005cscogs00\u005cDocuments\u005cCustomers\u005cHarstra\u005c10073_V0.2\u005cHartstra_10073GrandeFord\u005ccode\u005cTera_7\u005cvt3_code\u005cvt3_POU__REBOOT.h
p396
S'8d28313461470d0afae1935a3afce661'
p397
sVC:\u005cUsers\u005cashlc00\u005cDocuments\u005cHartstra\u005cCaldwellChevrolet_10083\u005cCaldwellChevy10083_v1.0.0\u005ccode\u005cTera_7\u005cvt3_code\u005cvt3_Disp__Setup.h
p398
S'a1a0147014ae043f4bd619c057d18880'
p399
sVC:\u005cUsers\u005cashlc00\u005cDocuments\u005cHartstra\u005cCaldwellChevrolet_10083\u005cCaldwellChevy10083_v1.0.0\u005ccode\u005cTera_7\u005cvt3_code\u005cvt3_POU__mountUSB.h
p400
S'4b9695cd4c7ab715a8531a6aeb27e894'
p401
sVC:\u005cUsers\u005cscogs00\u005cDocuments\u005cCustomers\u005cHarstra\u005c10073_V0.2\u005cHartstra_10073GrandeFord\u005ccode\u005cTera_7\u005cvt3_code\u005cvt3_POU__ARR_BYTE_version.h
p402
S'd47de601d5de58432479f1de0cde1c82'
p403
sVC:\u005cUsers\u005cashlc00\u005cDocuments\u005cHartstra\u005cCaldwellChevrolet_10083\u005cCaldwellChevy10083_v1.0.0\u005ccode\u005cTera_7\u005cvt3_code\u005cvt3_Disp__Setup.c
p404
S'8621b393f59156c496333f873e5dc254'
p405
sVC:\u005cUsers\u005cscogs00\u005cDocuments\u005cCustomers\u005cHarstra\u005c10073_V0.2\u005cHartstra_10073GrandeFord\u005ccode\u005cTera_7\u005cvt3_code\u005cvt3_POU__WRITE_EL_TO_SD.h
p406
S'5a3ec85ee871bb38535cb8f3e9515e31'
p407
sVC:\u005cUsers\u005cashlc00\u005cDocuments\u005cHartstra\u005cCaldwellChevrolet_10083\u005cCaldwellChevy10083_v1.0.0\u005ccode\u005cTera_7\u005cvt3_code\u005cvt3_lang.c
p408
S'806ccd2e75a99d291663284e9ab25fa2'
p409
sVC:\u005cUsers\u005cscogs00\u005cDocuments\u005cCustomers\u005cHarstra\u005c10073_V0.2\u005cHartstra_10073GrandeFord\u005ccode\u005cTera_7\u005cvt3_code\u005cvt3_disp_common.c
p410
S'dc9c78970ec763e131fbe2060d5ce550'
p411
sVC:\u005cUsers\u005cscogs00\u005cDocuments\u005cCustomers\u005cHarstra\u005c10073_V0.2\u005cHartstra_10073GrandeFord\u005ccode\u005cTera_7\u005cvt3_code\u005cvt3_init_persistent_f_array.c
p412
S'd2643a61ff12c08922325f5a25135faa'
p413
sVC:\u005cUsers\u005cashlc00\u005cDesktop\u005cHartstra\u005cHartstra_10073GrandeFord\u005ccode\u005cTera_7\u005cvt3_code\u005cvt3_disp_common.h
p414
S'df9e81379d9f7f41b22f3fe1a6656d1b'
p415
sVC:\u005cUsers\u005cashlc00\u005cDocuments\u005cHartstra\u005cCaldwellChevrolet_10083\u005cCaldwellChevy10083_v1.0.0\u005ccode\u005cTera_7\u005cvt3_code\u005cvt3_lang.h
p416
S'a8721b58f9ff16d6cdbdf9f2df45f9fd'
p417
sVC:\u005cUsers\u005cashlc00\u005cDesktop\u005cHartstra\u005cHartstra_10073GrandeFord\u005ccode\u005cTera_7\u005cvt3_code\u005cvt3_disp_common.c
p418
S'dc9c78970ec763e131fbe2060d5ce550'
p419
sVC:\u005cUsers\u005cscogs00\u005cDocuments\u005cCustomers\u005cHarstra\u005c10073_V0.2\u005cHartstra_10073GrandeFord\u005ccode\u005cTera_7\u005cvt3_code\u005cvt3_init_persistent_f_array.h
p420
S'4961bac531fd7b438c30560dbf5950df'
p421
sVC:\u005cUsers\u005cscogs00\u005cDocuments\u005cCustomers\u005cHarstra\u005c10073_V0.2\u005cHartstra_10073GrandeFord\u005ccode\u005cTera_7\u005cvt3_code\u005cvt3_disp_common.h
p422
S'df9e81379d9f7f41b22f3fe1a6656d1b'
p423
sVC:\u005cUsers\u005cashlc00\u005cDesktop\u005cHartstra\u005cHartstra_10073GrandeFord\u005ccode\u005cTera_7\u005cvt3_code\u005cvt3_POU_string_typedef.h
p424
S'878acfc1d6d7d5859feaefbb3f0f1548'
p425
sVC:\u005cUsers\u005cscogs00\u005cDocuments\u005cCustomers\u005cHarstra\u005c10073_V0.2\u005cHartstra_10073GrandeFord\u005ccode\u005cTera_7\u005cvt3_code\u005cvt3_POU__umountSD.h
p426
S'c78a8f025553f187d3d66c99fca1af75'
p427
sVC:\u005cUsers\u005cashlc00\u005cDesktop\u005cHartstra\u005cHartstra_10073GrandeFord\u005ccode\u005cTera_7\u005cvt3_code\u005cvt3_Event__Camera2.h
p428
S'1f4b65e6b3cc84b31de23f0668d5427f'
p429
sVC:\u005cUsers\u005cscogs00\u005cDocuments\u005cCustomers\u005cHarstra\u005c10073_V0.2\u005cHartstra_10073GrandeFord\u005ccode\u005cTera_7\u005cvt3_code\u005cvt3_POU__task100.h
p430
S'3fe5ad71eaf99f37093e43adb00712c7'
p431
sVC:\u005cUsers\u005cashlc00\u005cDesktop\u005cHartstra\u005cHartstra_10073GrandeFord\u005ccode\u005cTera_7\u005cvt3_code\u005cvt3_POU__req_touchcalibration.h
p432
S'ca983682e3fdc0f466cefe0b40bae1df'
p433
sVC:\u005cUsers\u005cscogs00\u005cDocuments\u005cCustomers\u005cHarstra\u005c10073_V0.2\u005cHartstra_10073GrandeFord\u005ccode\u005cTera_7\u005cvt3_code\u005cvt3_POU__get_prj_version.h
p434
S'a49e34ca22601f3771b1a95024c0c979'
p435
sVC:\u005cUsers\u005cashlc00\u005cDocuments\u005cHartstra\u005cCaldwellChevrolet_10083\u005cCaldwellChevy10083_v1.0.0\u005ccode\u005cTera_7\u005cvt3_code\u005cvt3_POU__WRITE_EL_TO_USB.h
p436
S'c0190e515cc820176bb4d4a16e452b73'
p437
sVC:\u005cUsers\u005cscogs00\u005cDocuments\u005cCustomers\u005cHarstra\u005c10073_V0.2\u005cHartstra_10073GrandeFord\u005ccode\u005cTera_7\u005cvt3_code\u005cvt3_POU__task100.c
p438
S'a25f6d143489cca51df4f86ca6b2dc77'
p439
sVC:\u005cUsers\u005cscogs00\u005cDocuments\u005cCustomers\u005cHarstra\u005c10073_V0.2\u005cHartstra_10073GrandeFord\u005ccode\u005cTera_7\u005cvt3_code\u005cvt3_POU__doBrightness.h
p440
S'bd7f0e9533f882db1b8709a3dd583a12'
p441
sVC:\u005cUsers\u005cscogs00\u005cDocuments\u005cCustomers\u005cHarstra\u005c10073_V0.2\u005cHartstra_10073GrandeFord\u005ccode\u005cTera_7\u005cvt3_code\u005cvt3_POU__splash_data.c
p442
S'831367c3729466e584ad1a15a8c0b6dc'
p443
sVC:\u005cUsers\u005cashlc00\u005cDocuments\u005cHartstra\u005cCaldwellChevrolet_10083\u005cCaldwellChevy10083_v1.0.0\u005ccode\u005cTera_7\u005cvt3_code\u005cvt3_trend_sampling.c
p444
S'4515ec49943d262cae4c828e39dd552d'
p445
sVC:\u005cUsers\u005cscogs00\u005cDocuments\u005cCustomers\u005cHarstra\u005c10073_V0.2\u005cHartstra_10073GrandeFord\u005ccode\u005cTera_7\u005cvt3_code\u005cvt3_POU__doBrightness.c
p446
S'12d5db05feb130a14db3ab7d4b8132f4'
p447
sVC:\u005cUsers\u005cscogs00\u005cDocuments\u005cCustomers\u005cHarstra\u005c10073_V0.2\u005cHartstra_10073GrandeFord\u005ccode\u005cTera_7\u005cvt3_code\u005cvt3_POU__splash_data.h
p448
S'06a56c5d97951cdf3f7735cdc55434aa'
p449
sVC:\u005cUsers\u005cashlc00\u005cDesktop\u005cHartstra\u005cHartstra_10073GrandeFord\u005ccode\u005cTera_7\u005cvt3_code\u005cvt3_POU__INIT_BYTEARRAY_P.h
p450
S'4c8fa5bc6763c725ee8381222d24a28c'
p451
sVC:\u005cUsers\u005cashlc00\u005cDesktop\u005cHartstra\u005cHartstra_10073GrandeFord\u005ccode\u005cTera_7\u005cvt3_code\u005cvt3_POU__interpol.c
p452
S'f6e11149bc04c40fe5fcaf31b1231cbf'
p453
sVC:\u005cUsers\u005cashlc00\u005cDocuments\u005cHartstra\u005cCaldwellChevrolet_10083\u005cCaldwellChevy10083_v1.0.0\u005ccode\u005cTera_7\u005cvt3_code\u005cvt3_BMP__BluButtonStyle1_0_0.h
p454
S'1ef78b26f668a658b2f7b009f54003dc'
p455
sVC:\u005cUsers\u005cashlc00\u005cDesktop\u005cHartstra\u005cHartstra_10073GrandeFord\u005ccode\u005cTera_7\u005cvt3_code\u005cvt3_POU__interpol.h
p456
S'd692c1ce268a9e801aac9576ba8dcdff'
p457
sVC:\u005cUsers\u005cashlc00\u005cDocuments\u005cHartstra\u005cCaldwellChevrolet_10083\u005cCaldwellChevy10083_v1.0.0\u005ccode\u005cTera_7\u005cvt3_code\u005cvt3_POU__SET_POWER_FAIL_SHUTDOWN.h
p458
S'bc09daf7d5461e1a0ab2cea2e1262bde'
p459
sVC:\u005cUsers\u005cashlc00\u005cDocuments\u005cHartstra\u005cCaldwellChevrolet_10083\u005cCaldwellChevy10083_v1.0.0\u005ccode\u005cTera_7\u005cvt3_code\u005cvt3_POU__umountUSB.h
p460
S'0a7a7c4771e3c92265bd5c264629cb7c'
p461
sVC:\u005cUsers\u005cscogs00\u005cDocuments\u005cCustomers\u005cHarstra\u005c10073_V0.2\u005cHartstra_10073GrandeFord\u005ccode\u005cTera_7\u005cvt3_code\u005cvt3_POU__umountUSB.h
p462
S'0a7a7c4771e3c92265bd5c264629cb7c'
p463
sVC:\u005cUsers\u005cashlc00\u005cDocuments\u005cHartstra\u005cCaldwellChevrolet_10083\u005cCaldwellChevy10083_v1.0.0\u005ccode\u005cTera_7\u005cvt3_code\u005cvt3_var_version.c
p464
S'c8add1078a83e0bc85a20fb008886e02'
p465
sVC:\u005cUsers\u005cashlc00\u005cDocuments\u005cHartstra\u005cCaldwellChevrolet_10083\u005cCaldwellChevy10083_v1.0.0\u005ccode\u005cTera_7\u005cvt3_code\u005cvt3_CAN_common.c
p466
S'dc02149e06a660e797b5902ccd767106'
p467
sVC:\u005cUsers\u005cashlc00\u005cDocuments\u005cHartstra\u005cCaldwellChevrolet_10083\u005cCaldwellChevy10083_v1.0.0\u005ccode\u005cTera_7\u005cvt3_code\u005cvt3_POU__check_touchcalibration.h
p468
S'69001f57502ab238b2778c495da66807'
p469
sVC:\u005cUsers\u005cashlc00\u005cDesktop\u005cHartstra\u005cHartstra_10073GrandeFord\u005ccode\u005cTera_7\u005cvt3_code\u005cvt3_POU__INIT_BYTEARRAY_R.h
p470
S'5df33f87a18e04cca24cfbcb60efff6d'
p471
sVC:\u005cUsers\u005cashlc00\u005cDesktop\u005cHartstra\u005cHartstra_10073GrandeFord\u005ccode\u005cTera_7\u005cvt3_code\u005cvt3_POU__SHUTDOWN.h
p472
S'0d13935e77aae17b2d8b24d5c226330f'
p473
sVC:\u005cUsers\u005cashlc00\u005cDesktop\u005cHartstra\u005cHartstra_10073GrandeFord\u005ccode\u005cTera_7\u005cvt3_code\u005cvt3_POU__WRITE_EL_PRIVATE.h
p474
S'28304ebffb0556ce574c9a70b46bcdcd'
p475
sVC:\u005cUsers\u005cscogs00\u005cDocuments\u005cCustomers\u005cHarstra\u005c10073_V0.2\u005cHartstra_10073GrandeFord\u005ccode\u005cTera_7\u005cvt3_code\u005cvt3_init_persistent_p_array.h
p476
S'0af64c3cc4888d6473556f273bc1f64e'
p477
sVC:\u005cUsers\u005cscogs00\u005cDocuments\u005cCustomers\u005cHarstra\u005c10073_V0.2\u005cHartstra_10073GrandeFord\u005ccode\u005cTera_7\u005cvt3_code\u005cvt3_disp.c
p478
S'0dd14f8875dcbf526dd0d69df67ff76f'
p479
sVC:\u005cUsers\u005cscogs00\u005cDocuments\u005cCustomers\u005cHarstra\u005c10073_V0.2\u005cHartstra_10073GrandeFord\u005ccode\u005cTera_7\u005cvt3_code\u005cvt3_init_persistent_p_array.c
p480
S'5856020ff37d4e80adbf66a773c9c9fc'
p481
sVC:\u005cUsers\u005cscogs00\u005cDocuments\u005cCustomers\u005cHarstra\u005c10073_V0.2\u005cHartstra_10073GrandeFord\u005ccode\u005cTera_7\u005cvt3_code\u005cvt3_disp.h
p482
S'9daa7707500df2621658309731a99da4'
p483
sVC:\u005cUsers\u005cscogs00\u005cDocuments\u005cCustomers\u005cHarstra\u005c10073_V0.2\u005cHartstra_10073GrandeFord\u005ccode\u005cTera_7\u005cvt3_code\u005cvt3_alarms.c
p484
S'924fb0eff633b8ff56d9a54f1a7f8ed4'
p485
sVC:\u005cUsers\u005cashlc00\u005cDesktop\u005cHartstra\u005cHartstra_10073GrandeFord\u005ccode\u005cTera_7\u005cvt3_code\u005cvt3_POU__umountUSB.h
p486
S'0a7a7c4771e3c92265bd5c264629cb7c'
p487
sVC:\u005cUsers\u005cashlc00\u005cDesktop\u005cHartstra\u005cHartstra_10073GrandeFord\u005ccode\u005cTera_7\u005cvt3_code\u005cvt3_POU__WRITE_EL_TO_SD.h
p488
S'5a3ec85ee871bb38535cb8f3e9515e31'
p489
sVC:\u005cUsers\u005cscogs00\u005cDocuments\u005cCustomers\u005cHarstra\u005c10073_V0.2\u005cHartstra_10073GrandeFord\u005ccode\u005cTera_7\u005cvt3_code\u005cvt3_alarms.h
p490
S'fe6ff769366d0d1ff417804620480363'
p491
sVC:\u005cUsers\u005cashlc00\u005cDesktop\u005cHartstra\u005cHartstra_10073GrandeFord\u005ccode\u005cTera_7\u005cvt3_code\u005cvt3_Event__Splash.c
p492
S'b98d7360c7c2c13c30b9d57c66774b60'
p493
sVC:\u005cUsers\u005cscogs00\u005cDocuments\u005cCustomers\u005cHarstra\u005c10073_V0.2\u005cHartstra_10073GrandeFord\u005ccode\u005cTera_7\u005cvt3_code\u005cvt3_POU__SHUTDOWN.h
p494
S'0d13935e77aae17b2d8b24d5c226330f'
p495
sVC:\u005cUsers\u005cashlc00\u005cDesktop\u005cHartstra\u005cHartstra_10073GrandeFord\u005ccode\u005cTera_7\u005cvt3_code\u005cvt3_Event__Splash.h
p496
S'17ab0e2a699e322908b2f85223eae64e'
p497
sVC:\u005cUsers\u005cashlc00\u005cDocuments\u005cHartstra\u005cCaldwellChevrolet_10083\u005cCaldwellChevy10083_v1.0.0\u005ccode\u005cTera_7\u005cvt3_code\u005cvt3_POU__WRITE_EL_TO_SD.h
p498
S'5a3ec85ee871bb38535cb8f3e9515e31'
p499
sVC:\u005cUsers\u005cashlc00\u005cDocuments\u005cHartstra\u005cCaldwellChevrolet_10083\u005cCaldwellChevy10083_v1.0.0\u005ccode\u005cTera_7\u005cvt3_code\u005cvt3_POU.c
p500
S'e45f19b1caf1fd87ed8b9c0a5e283751'
p501
sVC:\u005cUsers\u005cashlc00\u005cDocuments\u005cHartstra\u005cCaldwellChevrolet_10083\u005cCaldwellChevy10083_v1.0.0\u005ccode\u005cTera_7\u005cvt3_code\u005cvt3_POU.h
p502
S'a6579c7b36ae06babe016f801ddd377a'
p503
sVC:\u005cUsers\u005cashlc00\u005cDesktop\u005cHartstra\u005cHartstra_10073GrandeFord\u005ccode\u005cTera_7\u005cvt3_code\u005cvt3_POU__usbUpdate.c
p504
S'b3857117872991ad521d98f50daac406'
p505
sVC:\u005cUsers\u005cashlc00\u005cDesktop\u005cHartstra\u005cHartstra_10073GrandeFord\u005ccode\u005cTera_7\u005cvt3_code\u005cvt3_POU__usbUpdate.h
p506
S'3f5e759a10e3069777771cdfe1bf7230'
p507
sVC:\u005cUsers\u005cashlc00\u005cDesktop\u005cHartstra\u005cHartstra_10073GrandeFord\u005ccode\u005cTera_7\u005cvt3_code\u005cvt3_POU__SET_POWER_FAIL_SHUTDOWN.h
p508
S'bc09daf7d5461e1a0ab2cea2e1262bde'
p509
sVC:\u005cUsers\u005cashlc00\u005cDocuments\u005cHartstra\u005cCaldwellChevrolet_10083\u005cCaldwellChevy10083_v1.0.0\u005ccode\u005cTera_7\u005cvt3_code\u005cvt3_POU__slaveConfigFB_CPU1.c
p510
S'5cf2db8f84b7b3219442fdba2b15f3c3'
p511
sVC:\u005cUsers\u005cashlc00\u005cDocuments\u005cHartstra\u005cCaldwellChevrolet_10083\u005cCaldwellChevy10083_v1.0.0\u005ccode\u005cTera_7\u005cvt3_code\u005cvt3_POU__slaveConfigFB_CPU1.h
p512
S'bf7d587fcfb11e681d4bdd8e899303ca'
p513
sVC:\u005cUsers\u005cscogs00\u005cDocuments\u005cCustomers\u005cHarstra\u005c10073_V0.2\u005cHartstra_10073GrandeFord\u005ccode\u005cTera_7\u005cvt3_code\u005cvt3_POU__setup_data.h
p514
S'f5c57c650f37a51c317c0b7aae640654'
p515
sVC:\u005cUsers\u005cashlc00\u005cDocuments\u005cHartstra\u005cCaldwellChevrolet_10083\u005cCaldwellChevy10083_v1.0.0\u005ccode\u005cTera_7\u005cvt3_code\u005cvt3_init_persistent_r_array.c
p516
S'68ed6d0171041046035d972b823fe6bf'
p517
sVC:\u005cUsers\u005cscogs00\u005cDocuments\u005cCustomers\u005cHarstra\u005c10073_V0.2\u005cHartstra_10073GrandeFord\u005ccode\u005cTera_7\u005cvt3_code\u005cvt3_POU__setup_data.c
p518
S'5ec975ebafb6a0aae91ab3812cd81c7d'
p519
sVC:\u005cUsers\u005cashlc00\u005cDocuments\u005cHartstra\u005cCaldwellChevrolet_10083\u005cCaldwellChevy10083_v1.0.0\u005ccode\u005cTera_7\u005cvt3_code\u005cvt3_init_persistent_r_array.h
p520
S'6e2e768d269693560e62c805fccc7da5'
p521
sVC:\u005cUsers\u005cashlc00\u005cDocuments\u005cHartstra\u005cCaldwellChevrolet_10083\u005cCaldwellChevy10083_v1.0.0\u005ccode\u005cTera_7\u005cvt3_code\u005cvt3_Event__Setup.c
p522
S'6601e4f72d3e27fcfec420e2fb87aca9'
p523
sVC:\u005cUsers\u005cashlc00\u005cDesktop\u005cHartstra\u005cHartstra_10073GrandeFord\u005ccode\u005cTera_7\u005cvt3_code\u005cvt3_vars.h
p524
S'5b522a26dab90634286fdf78a92db894'
p525
sVC:\u005cUsers\u005cashlc00\u005cDocuments\u005cHartstra\u005cCaldwellChevrolet_10083\u005cCaldwellChevy10083_v1.0.0\u005ccode\u005cTera_7\u005cvt3_code\u005cvt3_Event__Setup.h
p526
S'3d9fa41bdbb7786cce09e052f7af855c'
p527
sVC:\u005cUsers\u005cashlc00\u005cDesktop\u005cHartstra\u005cHartstra_10073GrandeFord\u005ccode\u005cTera_7\u005cvt3_code\u005cvt3_vars.c
p528
S'ed1071d1c7509b4e9db99ff431827929'
p529
sVC:\u005cUsers\u005cscogs00\u005cDocuments\u005cCustomers\u005cHarstra\u005c10073_V0.2\u005cHartstra_10073GrandeFord\u005ccode\u005cTera_7\u005cvt3_code\u005cvt3_Disp__Setup.c
p530
S'9ef62c83b423b82e9103f9297d05f8e7'
p531
sVC:\u005cUsers\u005cashlc00\u005cDocuments\u005cHartstra\u005cCaldwellChevrolet_10083\u005cCaldwellChevy10083_v1.0.0\u005ccode\u005cTera_7\u005cvt3_code\u005cvt3_CAN__CanInterface.h
p532
S'4ba8c93f1ea3ac6c6208bc8f501c7287'
p533
sVC:\u005cUsers\u005cscogs00\u005cDocuments\u005cCustomers\u005cHarstra\u005c10073_V0.2\u005cHartstra_10073GrandeFord\u005ccode\u005cTera_7\u005cvt3_code\u005cvt3_Disp__Setup.h
p534
S'a1a0147014ae043f4bd619c057d18880'
p535
sVC:\u005cUsers\u005cscogs00\u005cDocuments\u005cCustomers\u005cHarstra\u005c10073_V0.2\u005cHartstra_10073GrandeFord\u005ccode\u005cTera_7\u005cvt3_code\u005cvt3_POU__lcdSetBlank.h
p536
S'ddfdc2e8d7ed09c43e372876a89df454'
p537
sVC:\u005cUsers\u005cashlc00\u005cDesktop\u005cHartstra\u005cHartstra_10073GrandeFord\u005ccode\u005cTera_7\u005cvt3_code\u005cvt3_BMP__GryButtonStyle1_0_0.h
p538
S'1399adba65e3b4e78ba959714327f2c9'
p539
sVC:\u005cUsers\u005cscogs00\u005cDocuments\u005cCustomers\u005cHarstra\u005c10073_V0.2\u005cHartstra_10073GrandeFord\u005ccode\u005cTera_7\u005cvt3_code\u005cvt3_POU__interpol.h
p540
S'd692c1ce268a9e801aac9576ba8dcdff'
p541
sVC:\u005cUsers\u005cashlc00\u005cDocuments\u005cHartstra\u005cCaldwellChevrolet_10083\u005cCaldwellChevy10083_v1.0.0\u005ccode\u005cTera_7\u005cvt3_code\u005cvt3_POU__iocore_data.h
p542
S'1343d4a622945dc0ed20745d5f00732e'
p543
sVC:\u005cUsers\u005cscogs00\u005cDocuments\u005cCustomers\u005cHarstra\u005c10073_V0.2\u005cHartstra_10073GrandeFord\u005ccode\u005cTera_7\u005cvt3_code\u005cvt3_POU__interpol.c
p544
S'f6e11149bc04c40fe5fcaf31b1231cbf'
p545
sVC:\u005cUsers\u005cashlc00\u005cDocuments\u005cHartstra\u005cCaldwellChevrolet_10083\u005cCaldwellChevy10083_v1.0.0\u005ccode\u005cTera_7\u005cvt3_code\u005cvt3_POU__iocore_data.c
p546
S'e22bd8868ad8f87fdab2c083a14e38e3'
p547
sVC:\u005cUsers\u005cashlc00\u005cDesktop\u005cHartstra\u005cHartstra_10073GrandeFord\u005ccode\u005cTera_7\u005cvt3_code\u005cvt3_fonts.c
p548
S'59e544d226ae179dd444bd1c6c851d7e'
p549
sVC:\u005cUsers\u005cscogs00\u005cDocuments\u005cCustomers\u005cHarstra\u005c10073_V0.2\u005cHartstra_10073GrandeFord\u005ccode\u005cTera_7\u005cvt3_code\u005cvt3_POU__usbUpdate.c
p550
S'b3857117872991ad521d98f50daac406'
p551
sVC:\u005cUsers\u005cashlc00\u005cDesktop\u005cHartstra\u005cHartstra_10073GrandeFord\u005ccode\u005cTera_7\u005cvt3_code\u005cvt3_palette.h
p552
S'7c7e08576438bd557f3c8a16226dc059'
p553
sVC:\u005cUsers\u005cashlc00\u005cDocuments\u005cHartstra\u005cCaldwellChevrolet_10083\u005cCaldwellChevy10083_v1.0.0\u005ccode\u005cTera_7\u005cvt3_code\u005cvt3_POU__outputs.c
p554
S'5b9f2d04940026acab0be1cc0d1dae11'
p555
sVC:\u005cUsers\u005cashlc00\u005cDocuments\u005cHartstra\u005cCaldwellChevrolet_10083\u005cCaldwellChevy10083_v1.0.0\u005ccode\u005cTera_7\u005cvt3_code\u005cvt3_POU__outputs.h
p556
S'417e291da49adbc702c64a1091396c6b'
p557
sVC:\u005cUsers\u005cashlc00\u005cDesktop\u005cHartstra\u005cHartstra_10073GrandeFord\u005ccode\u005cTera_7\u005cvt3_code\u005cvt3_palette.c
p558
S'e23c9e47ad38f1cdb9528ab6f35fd755'
p559
sVC:\u005cUsers\u005cscogs00\u005cDocuments\u005cCustomers\u005cHarstra\u005c10073_V0.2\u005cHartstra_10073GrandeFord\u005ccode\u005cTera_7\u005cvt3_code\u005cvt3_POU__usbUpdate.h
p560
S'3f5e759a10e3069777771cdfe1bf7230'
p561
sVC:\u005cUsers\u005cashlc00\u005cDesktop\u005cHartstra\u005cHartstra_10073GrandeFord\u005ccode\u005cTera_7\u005cvt3_code\u005cvt3_fonts.h
p562
S'2d4cc764408dc265a605b94c365b1284'
p563
sVC:\u005cUsers\u005cscogs00\u005cDocuments\u005cCustomers\u005cHarstra\u005c10073_V0.2\u005cHartstra_10073GrandeFord\u005ccode\u005cTera_7\u005cvt3_code\u005cvt3_BMP__GryButtonStyle1_0_0.h
p564
S'1399adba65e3b4e78ba959714327f2c9'
p565
sVC:\u005cUsers\u005cscogs00\u005cDocuments\u005cCustomers\u005cHarstra\u005c10073_V0.2\u005cHartstra_10073GrandeFord\u005ccode\u005cTera_7\u005cvt3_code\u005cvt3_POU__SET_POWER_FAIL_SHUTDOWN.h
p566
S'bc09daf7d5461e1a0ab2cea2e1262bde'
p567
sVC:\u005cUsers\u005cashlc00\u005cDesktop\u005cHartstra\u005cHartstra_10073GrandeFord\u005ccode\u005cTera_7\u005cvt3_code\u005cvt3_alarms.h
p568
S'fe6ff769366d0d1ff417804620480363'
p569
sVC:\u005cUsers\u005cscogs00\u005cDocuments\u005cCustomers\u005cHarstra\u005c10073_V0.2\u005cHartstra_10073GrandeFord\u005ccode\u005cTera_7\u005cvt3_code\u005cvt3_POU__INIT_BYTEARRAY_P.h
p570
S'4c8fa5bc6763c725ee8381222d24a28c'
p571
sVC:\u005cUsers\u005cashlc00\u005cDocuments\u005cHartstra\u005cCaldwellChevrolet_10083\u005cCaldwellChevy10083_v1.0.0\u005ccode\u005cTera_7\u005cvt3_code\u005cvt3_POU__get_prj_version.h
p572
S'a49e34ca22601f3771b1a95024c0c979'
p573
sVC:\u005cUsers\u005cashlc00\u005cDesktop\u005cHartstra\u005cHartstra_10073GrandeFord\u005ccode\u005cTera_7\u005cvt3_code\u005cvt3_alarms.c
p574
S'924fb0eff633b8ff56d9a54f1a7f8ed4'
p575
sVC:\u005cUsers\u005cashlc00\u005cDesktop\u005cHartstra\u005cHartstra_10073GrandeFord\u005ccode\u005cTera_7\u005cvt3_code\u005cvt3_POU__slaveConfig.c
p576
S'250282194da6b1fd2d12a0260069806d'
p577
sVC:\u005cUsers\u005cashlc00\u005cDesktop\u005cHartstra\u005cHartstra_10073GrandeFord\u005ccode\u005cTera_7\u005cvt3_code\u005cvt3_POU__outputs.c
p578
S'ede74136f3074315f05c5b8791f38c43'
p579
sVC:\u005cUsers\u005cashlc00\u005cDesktop\u005cHartstra\u005cHartstra_10073GrandeFord\u005ccode\u005cTera_7\u005cvt3_code\u005cvt3_POU__outputs.h
p580
S'417e291da49adbc702c64a1091396c6b'
p581
sVC:\u005cUsers\u005cashlc00\u005cDesktop\u005cHartstra\u005cHartstra_10073GrandeFord\u005ccode\u005cTera_7\u005cvt3_code\u005cvt3_POU__slaveConfig.h
p582
S'bf079b10366ee781141b3c95541c11ca'
p583
sVC:\u005cUsers\u005cscogs00\u005cDocuments\u005cCustomers\u005cHarstra\u005c10073_V0.2\u005cHartstra_10073GrandeFord\u005ccode\u005cTera_7\u005cvt3_code\u005cvt3_init_persistent_r_array.c
p584
S'68ed6d0171041046035d972b823fe6bf'
p585
sVC:\u005cUsers\u005cashlc00\u005cDocuments\u005cHartstra\u005cCaldwellChevrolet_10083\u005cCaldwellChevy10083_v1.0.0\u005ccode\u005cTera_7\u005cvt3_code\u005cvt3_BMP__YlwButtonStyle1_0_0.h
p586
S'7c954ba97a5eaef59669f9bd93a13a88'
p587
sVC:\u005cUsers\u005cscogs00\u005cDocuments\u005cCustomers\u005cHarstra\u005c10073_V0.2\u005cHartstra_10073GrandeFord\u005ccode\u005cTera_7\u005cvt3_code\u005cvt3_init_persistent_r_array.h
p588
S'6e2e768d269693560e62c805fccc7da5'
p589
sVC:\u005cUsers\u005cashlc00\u005cDocuments\u005cHartstra\u005cCaldwellChevrolet_10083\u005cCaldwellChevy10083_v1.0.0\u005ccode\u005cTera_7\u005cvt3_code\u005cvt3_POU_string_typedef.h
p590
S'878acfc1d6d7d5859feaefbb3f0f1548'
p591
sVC:\u005cUsers\u005cscogs00\u005cDocuments\u005cCustomers\u005cHarstra\u005c10073_V0.2\u005cHartstra_10073GrandeFord\u005ccode\u005cTera_7\u005cvt3_code\u005cvt3_POU__INIT_BYTEARRAY_R.h
p592
S'5df33f87a18e04cca24cfbcb60efff6d'
p593
sVC:\u005cUsers\u005cscogs00\u005cDocuments\u005cCustomers\u005cHarstra\u005c10073_V0.2\u005cHartstra_10073GrandeFord\u005ccode\u005cTera_7\u005cvt3_code\u005cvt3_lang.c
p594
S'806ccd2e75a99d291663284e9ab25fa2'
p595
sVC:\u005cUsers\u005cashlc00\u005cDesktop\u005cHartstra\u005cHartstra_10073GrandeFord\u005ccode\u005cTera_7\u005cvt3_code\u005cvt3_POU__task100.c
p596
S'a25f6d143489cca51df4f86ca6b2dc77'
p597
sVC:\u005cUsers\u005cscogs00\u005cDocuments\u005cCustomers\u005cHarstra\u005c10073_V0.2\u005cHartstra_10073GrandeFord\u005ccode\u005cTera_7\u005cvt3_code\u005cvt3_Event__Setup.h
p598
S'3d9fa41bdbb7786cce09e052f7af855c'
p599
sVC:\u005cUsers\u005cscogs00\u005cDocuments\u005cCustomers\u005cHarstra\u005c10073_V0.2\u005cHartstra_10073GrandeFord\u005ccode\u005cTera_7\u005cvt3_code\u005cvt3_Event__Setup.c
p600
S'2e8df5fcbf7bf46ae86d632f9d0b30eb'
p601
sVC:\u005cUsers\u005cashlc00\u005cDesktop\u005cHartstra\u005cHartstra_10073GrandeFord\u005ccode\u005cTera_7\u005cvt3_code\u005cvt3_BMP__HartstraLogo1_0_0.h
p602
S'7ed3418e40475b3060ef49c0390dea9a'
p603
sVC:\u005cUsers\u005cashlc00\u005cDocuments\u005cHartstra\u005cCaldwellChevrolet_10083\u005cCaldwellChevy10083_v1.0.0\u005ccode\u005cTera_7\u005cvt3_code\u005cvt3_CAN__CanInterface.c
p604
S'7b7b548ca9c2f3f6806622c2380ef318'
p605
sVC:\u005cUsers\u005cscogs00\u005cDocuments\u005cCustomers\u005cHarstra\u005c10073_V0.2\u005cHartstra_10073GrandeFord\u005ccode\u005cTera_7\u005cvt3_code\u005cvt3_CAN.h
p606
S'd576274456b16a2977d33b5db3a28e44'
p607
sVC:\u005cUsers\u005cashlc00\u005cDocuments\u005cHartstra\u005cCaldwellChevrolet_10083\u005cCaldwellChevy10083_v1.0.0\u005ccode\u005cTera_7\u005cvt3_code\u005cvt3_Disp__Splash.c
p608
S'f3f646623d968e92332ed2c65e5793b4'
p609
sVC:\u005cUsers\u005cscogs00\u005cDocuments\u005cCustomers\u005cHarstra\u005c10073_V0.2\u005cHartstra_10073GrandeFord\u005ccode\u005cTera_7\u005cvt3_code\u005cvt3_CAN.c
p610
S'51204dc24c4364573301fe86f6f67bea'
p611
sVC:\u005cUsers\u005cashlc00\u005cDocuments\u005cHartstra\u005cCaldwellChevrolet_10083\u005cCaldwellChevy10083_v1.0.0\u005ccode\u005cTera_7\u005cvt3_code\u005cvt3_Disp__Splash.h
p612
S'd2e6dd9a5892697e0ee76d9900a6e582'
p613
sVC:\u005cUsers\u005cscogs00\u005cDocuments\u005cCustomers\u005cHarstra\u005c10073_V0.2\u005cHartstra_10073GrandeFord\u005ccode\u005cTera_7\u005cvt3_code\u005cvt3_Event__Camera2.h
p614
S'1f4b65e6b3cc84b31de23f0668d5427f'
p615
sVC:\u005cUsers\u005cashlc00\u005cDesktop\u005cHartstra\u005cHartstra_10073GrandeFord\u005ccode\u005cTera_7\u005cvt3_code\u005cvt3_BMP__BluButtonStyle1_0_0.h
p616
S'1ef78b26f668a658b2f7b009f54003dc'
p617
sVC:\u005cUsers\u005cashlc00\u005cDocuments\u005cHartstra\u005cCaldwellChevrolet_10083\u005cCaldwellChevy10083_v1.0.0\u005ccode\u005cTera_7\u005cvt3_code\u005cvt3_IO.c
p618
S'ddbc987bc2fecbd3bc3ee3e13380de89'
p619
sVC:\u005cUsers\u005cashlc00\u005cDocuments\u005cHartstra\u005cCaldwellChevrolet_10083\u005cCaldwellChevy10083_v1.0.0\u005ccode\u005cTera_7\u005cvt3_code\u005cvt3_IO.h
p620
S'f0b713b9daa93742b2b221371a7e3ad2'
p621
sVC:\u005cUsers\u005cashlc00\u005cDesktop\u005cHartstra\u005cHartstra_10073GrandeFord\u005ccode\u005cTera_7\u005cvt3_code\u005cvt3_images.h
p622
S'da3920d825848d82e66ab231ae998a99'
p623
sVC:\u005cUsers\u005cashlc00\u005cDocuments\u005cHartstra\u005cCaldwellChevrolet_10083\u005cCaldwellChevy10083_v1.0.0\u005ccode\u005cTera_7\u005cvt3_code\u005cvt3_POU__task100.c
p624
S'a25f6d143489cca51df4f86ca6b2dc77'
p625
sVC:\u005cUsers\u005cashlc00\u005cDesktop\u005cHartstra\u005cHartstra_10073GrandeFord\u005ccode\u005cTera_7\u005cvt3_code\u005cvt3_CAN__CanInterface.c
p626
S'7f16ef93261edba354ec41d5bdee863a'
p627
sVC:\u005cUsers\u005cscogs00\u005cDocuments\u005cCustomers\u005cHarstra\u005c10073_V0.2\u005cHartstra_10073GrandeFord\u005ccode\u005cTera_7\u005cvt3_code\u005cvt3_POU__get_prj_version_byte.h
p628
S'fb42ebcb2994deaa0c678f0385485fa1'
p629
sVC:\u005cUsers\u005cashlc00\u005cDocuments\u005cHartstra\u005cCaldwellChevrolet_10083\u005cCaldwellChevy10083_v1.0.0\u005ccode\u005cTera_7\u005cvt3_code\u005cvt3_POU__task100.h
p630
S'3fe5ad71eaf99f37093e43adb00712c7'
p631
sVC:\u005cUsers\u005cashlc00\u005cDesktop\u005cHartstra\u005cHartstra_10073GrandeFord\u005ccode\u005cTera_7\u005cvt3_code\u005cvt3_CAN__CanInterface.h
p632
S'4ba8c93f1ea3ac6c6208bc8f501c7287'
p633
sVC:\u005cUsers\u005cashlc00\u005cDocuments\u005cHartstra\u005cCaldwellChevrolet_10083\u005cCaldwellChevy10083_v1.0.0\u005ccode\u005cTera_7\u005cvt3_code\u005cvt3_POU__req_touchcalibration.h
p634
S'ca983682e3fdc0f466cefe0b40bae1df'
p635
sVC:\u005cUsers\u005cashlc00\u005cDocuments\u005cHartstra\u005cCaldwellChevrolet_10083\u005cCaldwellChevy10083_v1.0.0\u005ccode\u005cTera_7\u005cvt3_code\u005cvt3_CAN.h
p636
S'd576274456b16a2977d33b5db3a28e44'
p637
sVC:\u005cUsers\u005cashlc00\u005cDocuments\u005cHartstra\u005cCaldwellChevrolet_10083\u005cCaldwellChevy10083_v1.0.0\u005ccode\u005cTera_7\u005cvt3_code\u005cvt3_alarms.h
p638
S'fe6ff769366d0d1ff417804620480363'
p639
sVC:\u005cUsers\u005cashlc00\u005cDocuments\u005cHartstra\u005cCaldwellChevrolet_10083\u005cCaldwellChevy10083_v1.0.0\u005ccode\u005cTera_7\u005cvt3_code\u005cvt3_CAN.c
p640
S'51204dc24c4364573301fe86f6f67bea'
p641
sVC:\u005cUsers\u005cashlc00\u005cDocuments\u005cHartstra\u005cCaldwellChevrolet_10083\u005cCaldwellChevy10083_v1.0.0\u005ccode\u005cTera_7\u005cvt3_code\u005cvt3_POU__umountSD.h
p642
S'c78a8f025553f187d3d66c99fca1af75'
p643
sVC:\u005cUsers\u005cashlc00\u005cDesktop\u005cHartstra\u005cHartstra_10073GrandeFord\u005ccode\u005cTera_7\u005cvt3_code\u005cvt3_BMP__RedButtonStyle1_0_0.h
p644
S'd5046e9cbc94173131f252fa41a33acf'
p645
sVC:\u005cUsers\u005cscogs00\u005cDocuments\u005cCustomers\u005cHarstra\u005c10073_V0.2\u005cHartstra_10073GrandeFord\u005ccode\u005cTera_7\u005cvt3_code\u005cvt3_POU__outputs.c
p646
S'532bd728d403dc3b49ee01d7dab1d847'
p647
sVC:\u005cUsers\u005cscogs00\u005cDocuments\u005cCustomers\u005cHarstra\u005c10073_V0.2\u005cHartstra_10073GrandeFord\u005ccode\u005cTera_7\u005cvt3_code\u005cvt3_POU__outputs.h
p648
S'417e291da49adbc702c64a1091396c6b'
p649
sVC:\u005cUsers\u005cashlc00\u005cDocuments\u005cHartstra\u005cCaldwellChevrolet_10083\u005cCaldwellChevy10083_v1.0.0\u005ccode\u005cTera_7\u005cvt3_code\u005cvt3_disp_common.c
p650
S'dc9c78970ec763e131fbe2060d5ce550'
p651
sVC:\u005cUsers\u005cashlc00\u005cDocuments\u005cHartstra\u005cCaldwellChevrolet_10083\u005cCaldwellChevy10083_v1.0.0\u005ccode\u005cTera_7\u005cvt3_code\u005cvt3_BMP__GrnButtonStyle1_0_0.h
p652
S'26de596f5675c33fb5b5239574439e2d'
p653
sVC:\u005cUsers\u005cashlc00\u005cDesktop\u005cHartstra\u005cHartstra_10073GrandeFord\u005ccode\u005cTera_7\u005cvt3_code\u005cvt3_IO.h
p654
S'f0b713b9daa93742b2b221371a7e3ad2'
p655
sVC:\u005cUsers\u005cashlc00\u005cDesktop\u005cHartstra\u005cHartstra_10073GrandeFord\u005ccode\u005cTera_7\u005cvt3_code\u005cvt3_POU__get_prj_version_byte.h
p656
S'fb42ebcb2994deaa0c678f0385485fa1'
p657
sVC:\u005cUsers\u005cashlc00\u005cDesktop\u005cHartstra\u005cHartstra_10073GrandeFord\u005ccode\u005cTera_7\u005cvt3_code\u005cvt3_POU__slaveConfigFB_CPU1.h
p658
S'bf7d587fcfb11e681d4bdd8e899303ca'
p659
sVC:\u005cUsers\u005cashlc00\u005cDocuments\u005cHartstra\u005cCaldwellChevrolet_10083\u005cCaldwellChevy10083_v1.0.0\u005ccode\u005cTera_7\u005cvt3_code\u005cvt3_Event__Home.c
p660
S'3815af2d2310ed55b6ca4b6bf7904d01'
p661
sVC:\u005cUsers\u005cashlc00\u005cDesktop\u005cHartstra\u005cHartstra_10073GrandeFord\u005ccode\u005cTera_7\u005cvt3_code\u005cvt3_POU__assignIO.c
p662
S'c08abdf2fdc9823966247eacbf658d9d'
p663
sVC:\u005cUsers\u005cashlc00\u005cDocuments\u005cHartstra\u005cCaldwellChevrolet_10083\u005cCaldwellChevy10083_v1.0.0\u005ccode\u005cTera_7\u005cvt3_code\u005cvt3_Event__Home.h
p664
S'40318f05c093d5c5308b25cdb0371ff2'
p665
sVC:\u005cUsers\u005cscogs00\u005cDocuments\u005cCustomers\u005cHarstra\u005c10073_V0.2\u005cHartstra_10073GrandeFord\u005ccode\u005cTera_7\u005cvt3_code\u005cvt3_lang.h
p666
S'a8721b58f9ff16d6cdbdf9f2df45f9fd'
p667
sVC:\u005cUsers\u005cashlc00\u005cDesktop\u005cHartstra\u005cHartstra_10073GrandeFord\u005ccode\u005cTera_7\u005cvt3_code\u005cvt3_POU__assignIO.h
p668
S'b674e5e7034098ea0140e96fd8ebd691'
p669
sVC:\u005cUsers\u005cashlc00\u005cDesktop\u005cHartstra\u005cHartstra_10073GrandeFord\u005ccode\u005cTera_7\u005cvt3_code\u005cvt3_POU__WRITE_EL_ENUM.h
p670
S'e27a3ba0649594da92819eca428dfeda'
p671
sVC:\u005cUsers\u005cashlc00\u005cDocuments\u005cHartstra\u005cCaldwellChevrolet_10083\u005cCaldwellChevy10083_v1.0.0\u005ccode\u005cTera_7\u005cvt3_code\u005cvt3_disp.c
p672
S'0dd14f8875dcbf526dd0d69df67ff76f'
p673
sVC:\u005cUsers\u005cashlc00\u005cDesktop\u005cHartstra\u005cHartstra_10073GrandeFord\u005ccode\u005cTera_7\u005cvt3_code\u005cvt3_POU__mountUSB.h
p674
S'4b9695cd4c7ab715a8531a6aeb27e894'
p675
sVC:\u005cUsers\u005cashlc00\u005cDesktop\u005cHartstra\u005cHartstra_10073GrandeFord\u005ccode\u005cTera_7\u005cvt3_code\u005cvt3_POU__slaveConfigFB_CPU1.c
p676
S'5cf2db8f84b7b3219442fdba2b15f3c3'
p677
sVC:\u005cUsers\u005cashlc00\u005cDesktop\u005cHartstra\u005cHartstra_10073GrandeFord\u005ccode\u005cTera_7\u005cvt3_code\u005cvt3_Event__Home.h
p678
S'f6d3d2b12b63eb9697092fadb392b3f7'
p679
sVC:\u005cUsers\u005cashlc00\u005cDesktop\u005cHartstra\u005cHartstra_10073GrandeFord\u005ccode\u005cTera_7\u005cvt3_code\u005cvt3_POU__splash_data.h
p680
S'06a56c5d97951cdf3f7735cdc55434aa'
p681
sVC:\u005cUsers\u005cashlc00\u005cDesktop\u005cHartstra\u005cHartstra_10073GrandeFord\u005ccode\u005cTera_7\u005cvt3_code\u005cvt3_BMP__YlwButtonStyle1_0_0.h
p682
S'7c954ba97a5eaef59669f9bd93a13a88'
p683
sVC:\u005cUsers\u005cashlc00\u005cDesktop\u005cHartstra\u005cHartstra_10073GrandeFord\u005ccode\u005cTera_7\u005cvt3_code\u005cvt3_POU__splash_data.c
p684
S'831367c3729466e584ad1a15a8c0b6dc'
p685
sVC:\u005cUsers\u005cscogs00\u005cDocuments\u005cCustomers\u005cHarstra\u005c10073_V0.2\u005cHartstra_10073GrandeFord\u005ccode\u005cTera_7\u005cvt3_code\u005cvt3_POU__req_touchcalibration.h
p686
S'ca983682e3fdc0f466cefe0b40bae1df'
p687
sVC:\u005cUsers\u005cscogs00\u005cDocuments\u005cCustomers\u005cHarstra\u005c10073_V0.2\u005cHartstra_10073GrandeFord\u005ccode\u005cTera_7\u005cvt3_code\u005cvt3_Event__ScreenFrame.h
p688
S'b35c8bbc4863ec4ac3ac49f98234be1c'
p689
sVC:\u005cUsers\u005cashlc00\u005cDocuments\u005cHartstra\u005cCaldwellChevrolet_10083\u005cCaldwellChevy10083_v1.0.0\u005ccode\u005cTera_7\u005cvt3_code\u005cvt3_POU__mountSD.h
p690
S'72dff1ea27086214a335451a0622d46c'
p691
sVC:\u005cUsers\u005cscogs00\u005cDocuments\u005cCustomers\u005cHarstra\u005c10073_V0.2\u005cHartstra_10073GrandeFord\u005ccode\u005cTera_7\u005cvt3_code\u005cvt3_Event__ScreenFrame.c
p692
S'a09ba3c3b436ddf656660d690fe83685'
p693
sVC:\u005cUsers\u005cashlc00\u005cDocuments\u005cHartstra\u005cCaldwellChevrolet_10083\u005cCaldwellChevy10083_v1.0.0\u005ccode\u005cTera_7\u005cvt3_code\u005cvt3_CAN_common.h
p694
S'5a7dcad396f420054a22da23ceedb260'
p695
sVC:\u005cUsers\u005cashlc00\u005cDocuments\u005cHartstra\u005cCaldwellChevrolet_10083\u005cCaldwellChevy10083_v1.0.0\u005ccode\u005cTera_7\u005cvt3_code\u005cvt3_Disp__Camera2.h
p696
S'0d3b99371fccf80b618084c9c3dc197f'
p697
sVC:\u005cUsers\u005cashlc00\u005cDocuments\u005cHartstra\u005cCaldwellChevrolet_10083\u005cCaldwellChevy10083_v1.0.0\u005ccode\u005cTera_7\u005cvt3_code\u005cvt3_Disp__Camera2.c
p698
S'246e8cc7faec9bc7d501c7ee7a4e565a'
p699
sVC:\u005cUsers\u005cscogs00\u005cDocuments\u005cCustomers\u005cHarstra\u005c10073_V0.2\u005cHartstra_10073GrandeFord\u005ccode\u005cTera_7\u005cvt3_code\u005cvt3_trend_sampling.c
p700
S'4515ec49943d262cae4c828e39dd552d'
p701
sVC:\u005cUsers\u005cashlc00\u005cDesktop\u005cHartstra\u005cHartstra_10073GrandeFord\u005ccode\u005cTera_7\u005cvt3_code\u005cvt3_POU__WRITE_EL.h
p702
S'1a5c19894715ccdebdfbdcd51a8c94f0'
p703
sVC:\u005cUsers\u005cashlc00\u005cDesktop\u005cHartstra\u005cHartstra_10073GrandeFord\u005ccode\u005cTera_7\u005cvt3_code\u005cvt3_disp.c
p704
S'0dd14f8875dcbf526dd0d69df67ff76f'
p705
sVC:\u005cUsers\u005cashlc00\u005cDocuments\u005cHartstra\u005cCaldwellChevrolet_10083\u005cCaldwellChevy10083_v1.0.0\u005ccode\u005cTera_7\u005cvt3_code\u005cvt3_POU__PLC_PRG.h
p706
S'1f9f56124d974ed3d859577727aeeef3'
p707
sVC:\u005cUsers\u005cashlc00\u005cDocuments\u005cHartstra\u005cCaldwellChevrolet_10083\u005cCaldwellChevy10083_v1.0.0\u005ccode\u005cTera_7\u005cvt3_code\u005cvt3_POU__PLC_PRG.c
p708
S'817fb867ffd52e0f8d8d1176be57970a'
p709
sVC:\u005cUsers\u005cashlc00\u005cDesktop\u005cHartstra\u005cHartstra_10073GrandeFord\u005ccode\u005cTera_7\u005cvt3_code\u005cvt3_POU__WRITE_EL_TO_USB.h
p710
S'c0190e515cc820176bb4d4a16e452b73'
p711
sVC:\u005cUsers\u005cscogs00\u005cDocuments\u005cCustomers\u005cHarstra\u005c10073_V0.2\u005cHartstra_10073GrandeFord\u005ccode\u005cTera_7\u005cvt3_code\u005cvt3_POU__WRITE_EL_PRIVATE.h
p712
S'28304ebffb0556ce574c9a70b46bcdcd'
p713
sVC:\u005cUsers\u005cashlc00\u005cDocuments\u005cHartstra\u005cCaldwellChevrolet_10083\u005cCaldwellChevy10083_v1.0.0\u005ccode\u005cTera_7\u005cvt3_code\u005cvt3_init_persistent_f_array.c
p714
S'd2643a61ff12c08922325f5a25135faa'
p715
sVC:\u005cUsers\u005cashlc00\u005cDocuments\u005cHartstra\u005cCaldwellChevrolet_10083\u005cCaldwellChevy10083_v1.0.0\u005ccode\u005cTera_7\u005cvt3_code\u005cvt3_init_persistent_f_array.h
p716
S'4961bac531fd7b438c30560dbf5950df'
p717
sVC:\u005cUsers\u005cashlc00\u005cDocuments\u005cHartstra\u005cCaldwellChevrolet_10083\u005cCaldwellChevy10083_v1.0.0\u005ccode\u005cTera_7\u005cvt3_code\u005cvt3_Event__ScreenFrame.c
p718
S'a09ba3c3b436ddf656660d690fe83685'
p719
sVC:\u005cUsers\u005cashlc00\u005cDocuments\u005cHartstra\u005cCaldwellChevrolet_10083\u005cCaldwellChevy10083_v1.0.0\u005ccode\u005cTera_7\u005cvt3_code\u005cvt3_Disp__Camera.h
p720
S'ad15effbf7f1d9ecc9e1c03f746f3d0c'
p721
sVC:\u005cUsers\u005cashlc00\u005cDocuments\u005cHartstra\u005cCaldwellChevrolet_10083\u005cCaldwellChevy10083_v1.0.0\u005ccode\u005cTera_7\u005cvt3_code\u005cvt3_Event__ScreenFrame.h
p722
S'b35c8bbc4863ec4ac3ac49f98234be1c'
p723
sVC:\u005cUsers\u005cashlc00\u005cDocuments\u005cHartstra\u005cCaldwellChevrolet_10083\u005cCaldwellChevy10083_v1.0.0\u005ccode\u005cTera_7\u005cvt3_code\u005cvt3_Disp__Camera.c
p724
S'e52884f3c508d98678d038faa469e538'
p725
sVC:\u005cUsers\u005cashlc00\u005cDesktop\u005cHartstra\u005cHartstra_10073GrandeFord\u005ccode\u005cTera_7\u005cvt3_code\u005cvt3_Event__ScreenFrame.h
p726
S'b35c8bbc4863ec4ac3ac49f98234be1c'
p727
sVC:\u005cUsers\u005cashlc00\u005cDesktop\u005cHartstra\u005cHartstra_10073GrandeFord\u005ccode\u005cTera_7\u005cvt3_code\u005cvt3_Event__ScreenFrame.c
p728
S'a09ba3c3b436ddf656660d690fe83685'
p729
sVC:\u005cUsers\u005cscogs00\u005cDocuments\u005cCustomers\u005cHarstra\u005c10073_V0.2\u005cHartstra_10073GrandeFord\u005ccode\u005cTera_7\u005cvt3_code\u005cvt3_Disp__Camera2.h
p730
S'0d3b99371fccf80b618084c9c3dc197f'
p731
sVC:\u005cUsers\u005cscogs00\u005cDocuments\u005cCustomers\u005cHarstra\u005c10073_V0.2\u005cHartstra_10073GrandeFord\u005ccode\u005cTera_7\u005cvt3_code\u005cvt3_Disp__Camera2.c
p732
S'246e8cc7faec9bc7d501c7ee7a4e565a'
p733
sVC:\u005cUsers\u005cashlc00\u005cDesktop\u005cHartstra\u005cHartstra_10073GrandeFord\u005ccode\u005cTera_7\u005cvt3_code\u005cvt3_init_persistent_r_array.c
p734
S'68ed6d0171041046035d972b823fe6bf'
p735
sVC:\u005cUsers\u005cscogs00\u005cDocuments\u005cCustomers\u005cHarstra\u005c10073_V0.2\u005cHartstra_10073GrandeFord\u005ccode\u005cTera_7\u005cvt3_code\u005cvt3_POU__mountUSB.h
p736
S'4b9695cd4c7ab715a8531a6aeb27e894'
p737
sVC:\u005cUsers\u005cashlc00\u005cDesktop\u005cHartstra\u005cHartstra_10073GrandeFord\u005ccode\u005cTera_7\u005cvt3_code\u005cvt3_init_persistent_r_array.h
p738
S'6e2e768d269693560e62c805fccc7da5'
p739
s.