(dp1
VC:\u005cUsers\u005churdj00\u005cDesktop\u005cHartstra_10041_V0.1\u005ccode\u005cTera_7\u005cvt3_code\u005cvt3_POU__interpol.h
p2
S'd692c1ce268a9e801aac9576ba8dcdff'
p3
sVC:\u005cUsers\u005churdj00\u005cDesktop\u005cHartstra_10041_V0.1\u005ccode\u005cTera_7\u005cvt3_code\u005cvt3_POU__get_prj_version.h
p4
S'a49e34ca22601f3771b1a95024c0c979'
p5
sVC:\u005cUsers\u005churdj00\u005cDesktop\u005cHartstra_10041_V0.1\u005ccode\u005cTera_7\u005cvt3_code\u005cvt3_BMP__YlwButtonStyle1_0_0.h
p6
S'7c954ba97a5eaef59669f9bd93a13a88'
p7
sVP:\u005cMobile Controls\u005cCUSTOMERS\u005cHartstra\u005cHartstra_10041_V0.1\u005ccode\u005cTera_7\u005cvt3_code\u005cvt3_Event__ScreenFrame.h
p8
S'b35c8bbc4863ec4ac3ac49f98234be1c'
p9
sVC:\u005cUsers\u005churdj00\u005cDesktop\u005cHartstra_10041_V0.1\u005ccode\u005cTera_7\u005cvt3_code\u005cvt3_POU__interpol.c
p10
S'f6e11149bc04c40fe5fcaf31b1231cbf'
p11
sVC:\u005cUsers\u005churdj00\u005cDesktop\u005cHartstra_10041_V0.1\u005ccode\u005cTera_7\u005cvt3_code\u005cvt3_lang.h
p12
S'a8721b58f9ff16d6cdbdf9f2df45f9fd'
p13
sVC:\u005cUsers\u005churdj00\u005cDesktop\u005cHartstra_10041_V0.1\u005ccode\u005cTera_7\u005cvt3_code\u005cvt3_CAN.h
p14
S'd576274456b16a2977d33b5db3a28e44'
p15
sVC:\u005cUsers\u005churdj00\u005cDesktop\u005cHartstra_10041_V0.1\u005ccode\u005cTera_7\u005cvt3_code\u005cvt3_POU__BYTE_TO_ASCII.h
p16
S'38cb083d133586d5c3ede0a2bded46b7'
p17
sVC:\u005cUsers\u005churdj00\u005cDesktop\u005cHartstra_10041_V0.1\u005ccode\u005cTera_7\u005cvt3_code\u005cvt3_Disp__ScreenFrame.h
p18
S'0d7e10ab595c0247711669e994613b79'
p19
sVP:\u005cMobile Controls\u005cCUSTOMERS\u005cHartstra\u005cHartstra_10041_V0.1\u005ccode\u005cTera_7\u005cvt3_code\u005cvt3_POU__global_data.h
p20
S'fb7dde5f96d993cb8a1fc78dba76af73'
p21
sVC:\u005cUsers\u005churdj00\u005cDesktop\u005cHartstra_10041_V0.1\u005ccode\u005cTera_7\u005cvt3_code\u005cvt3_Event__Splash.c
p22
S'2fcaccd52543a413b365ddb71cec5fe2'
p23
sVP:\u005cMobile Controls\u005cCUSTOMERS\u005cHartstra\u005cHartstra_10041_V0.1\u005ccode\u005cTera_7\u005cvt3_code\u005cvt3_POU__splash_data.h
p24
S'06a56c5d97951cdf3f7735cdc55434aa'
p25
sVC:\u005cUsers\u005churdj00\u005cDesktop\u005cHartstra_10041_V0.1\u005ccode\u005cTera_7\u005cvt3_code\u005cvt3_CAN.c
p26
S'51204dc24c4364573301fe86f6f67bea'
p27
sVP:\u005cMobile Controls\u005cCUSTOMERS\u005cHartstra\u005cHartstra_10041_V0.1\u005ccode\u005cTera_7\u005cvt3_code\u005cvt3_POU__global_data.c
p28
S'b5c00671f15d63f6dbb69735e918e056'
p29
sVC:\u005cUsers\u005churdj00\u005cDesktop\u005cHartstra_10041_V0.1\u005ccode\u005cTera_7\u005cvt3_code\u005cvt3_CAN_common.c
p30
S'4a4524c4eb24e82ed6e7a58206305fed'
p31
sVC:\u005cUsers\u005churdj00\u005cDesktop\u005cHartstra_10041_V0.1\u005ccode\u005cTera_7\u005cvt3_code\u005cvt3_POU__SHUTDOWN.h
p32
S'0d13935e77aae17b2d8b24d5c226330f'
p33
sVP:\u005cMobile Controls\u005cCUSTOMERS\u005cHartstra\u005cHartstra_10041_V0.1\u005ccode\u005cTera_7\u005cvt3_code\u005cvt3_CAN_common.h
p34
S'5a7dcad396f420054a22da23ceedb260'
p35
sVC:\u005cUsers\u005churdj00\u005cDesktop\u005cHartstra_10041_V0.1\u005ccode\u005cTera_7\u005cvt3_code\u005cvt3_fonts.c
p36
S'59e544d226ae179dd444bd1c6c851d7e'
p37
sVP:\u005cMobile Controls\u005cCUSTOMERS\u005cHartstra\u005cHartstra_10041_V0.1\u005ccode\u005cTera_7\u005cvt3_code\u005cvt3_POU__usbUpdate.h
p38
S'3f5e759a10e3069777771cdfe1bf7230'
p39
sVP:\u005cMobile Controls\u005cCUSTOMERS\u005cHartstra\u005cHartstra_10041_V0.1\u005ccode\u005cTera_7\u005cvt3_code\u005cvt3_CAN__CanInterface.h
p40
S'4ba8c93f1ea3ac6c6208bc8f501c7287'
p41
sVP:\u005cMobile Controls\u005cCUSTOMERS\u005cHartstra\u005cHartstra_10041_V0.1\u005ccode\u005cTera_7\u005cvt3_code\u005cvt3_CAN_common.c
p42
S'4a4524c4eb24e82ed6e7a58206305fed'
p43
sVC:\u005cUsers\u005churdj00\u005cDesktop\u005cHartstra_10041_V0.1\u005ccode\u005cTera_7\u005cvt3_code\u005cvt3_POU__GET_POWER_FAIL.h
p44
S'5d4714165fc4987308149061006f41b0'
p45
sVP:\u005cMobile Controls\u005cCUSTOMERS\u005cHartstra\u005cHartstra_10041_V0.1\u005ccode\u005cTera_7\u005cvt3_code\u005cvt3_POU__WRITE_EL_TO_USB.h
p46
S'c0190e515cc820176bb4d4a16e452b73'
p47
sVP:\u005cMobile Controls\u005cCUSTOMERS\u005cHartstra\u005cHartstra_10041_V0.1\u005ccode\u005cTera_7\u005cvt3_code\u005cvt3_CAN__CanInterface.c
p48
S'6af21f4d4e900d9c99c2bf46fe881831'
p49
sVC:\u005cUsers\u005churdj00\u005cDesktop\u005cHartstra_10041_V0.1\u005ccode\u005cTera_7\u005cvt3_code\u005cvt3_fonts.h
p50
S'2d4cc764408dc265a605b94c365b1284'
p51
sVC:\u005cUsers\u005churdj00\u005cDesktop\u005cHartstra_10041_V0.1\u005ccode\u005cTera_7\u005cvt3_code\u005cvt3_var_version.c
p52
S'3abc02f2a2605e830eabf7de57ebfdaf'
p53
sVP:\u005cMobile Controls\u005cCUSTOMERS\u005cHartstra\u005cHartstra_10041_V0.1\u005ccode\u005cTera_7\u005cvt3_code\u005cvt3_POU__home_data.h
p54
S'f81930e729c7b0af526b7cb29a6f9931'
p55
sVC:\u005cUsers\u005churdj00\u005cDesktop\u005cHartstra_10041_V0.1\u005ccode\u005cTera_7\u005cvt3_code\u005cvt3_POU__home_data.h
p56
S'f81930e729c7b0af526b7cb29a6f9931'
p57
sVC:\u005cUsers\u005churdj00\u005cDesktop\u005cHartstra_10041_V0.1\u005ccode\u005cTera_7\u005cvt3_code\u005cvt3_POU__REBOOT.h
p58
S'8d28313461470d0afae1935a3afce661'
p59
sVP:\u005cMobile Controls\u005cCUSTOMERS\u005cHartstra\u005cHartstra_10041_V0.1\u005ccode\u005cTera_7\u005cvt3_code\u005cvt3_POU__home_data.c
p60
S'95980268ade8ecbf7867ec73bc6b8739'
p61
sVC:\u005cUsers\u005churdj00\u005cDesktop\u005cHartstra_10041_V0.1\u005ccode\u005cTera_7\u005cvt3_code\u005cvt3_POU__check_touchcalibration.h
p62
S'69001f57502ab238b2778c495da66807'
p63
sVC:\u005cUsers\u005churdj00\u005cDesktop\u005cHartstra_10041_V0.1\u005ccode\u005cTera_7\u005cvt3_code\u005cvt3_POU__home_data.c
p64
S'95980268ade8ecbf7867ec73bc6b8739'
p65
sVP:\u005cMobile Controls\u005cCUSTOMERS\u005cHartstra\u005cHartstra_10041_V0.1\u005ccode\u005cTera_7\u005cvt3_code\u005cvt3_POU__WRITE_EL_TO_SD.h
p66
S'5a3ec85ee871bb38535cb8f3e9515e31'
p67
sVC:\u005cUsers\u005churdj00\u005cDesktop\u005cHartstra_10041_V0.1\u005ccode\u005cTera_7\u005cvt3_code\u005cvt3_disp_events.c
p68
S'b660ab564030d1e0be25114bea24119e'
p69
sVC:\u005cUsers\u005churdj00\u005cDesktop\u005cHartstra_10041_V0.1\u005ccode\u005cTera_7\u005cvt3_code\u005cvt3_IO.h
p70
S'f0b713b9daa93742b2b221371a7e3ad2'
p71
sVP:\u005cMobile Controls\u005cCUSTOMERS\u005cHartstra\u005cHartstra_10041_V0.1\u005ccode\u005cTera_7\u005cvt3_code\u005cvt3_init_persistent_f_array.c
p72
S'd2643a61ff12c08922325f5a25135faa'
p73
sVP:\u005cMobile Controls\u005cCUSTOMERS\u005cHartstra\u005cHartstra_10041_V0.1\u005ccode\u005cTera_7\u005cvt3_code\u005cvt3_Event__Splash.h
p74
S'82539d5311c38589470c28d0bd1f89a1'
p75
sVC:\u005cUsers\u005churdj00\u005cDesktop\u005cHartstra_10041_V0.1\u005ccode\u005cTera_7\u005cvt3_code\u005cvt3_Disp__ScreenFrame.c
p76
S'95d24bc69e130e5b5eb0105c9e38febe'
p77
sVP:\u005cMobile Controls\u005cCUSTOMERS\u005cHartstra\u005cHartstra_10041_V0.1\u005ccode\u005cTera_7\u005cvt3_code\u005cvt3_POU__get_prj_version.h
p78
S'a49e34ca22601f3771b1a95024c0c979'
p79
sVC:\u005cUsers\u005churdj00\u005cDesktop\u005cHartstra_10041_V0.1\u005ccode\u005cTera_7\u005cvt3_code\u005cvt3_BMP__RedButtonStyle1_0_0.h
p80
S'd5046e9cbc94173131f252fa41a33acf'
p81
sVP:\u005cMobile Controls\u005cCUSTOMERS\u005cHartstra\u005cHartstra_10041_V0.1\u005ccode\u005cTera_7\u005cvt3_code\u005cvt3_trend_sampling.c
p82
S'4515ec49943d262cae4c828e39dd552d'
p83
sVC:\u005cUsers\u005churdj00\u005cDesktop\u005cHartstra_10041_V0.1\u005ccode\u005cTera_7\u005cvt3_code\u005cvt3_disp.c
p84
S'9be2266030cbcfe50ba8a28ee66eece7'
p85
sVC:\u005cUsers\u005churdj00\u005cDesktop\u005cHartstra_10041_V0.1\u005ccode\u005cTera_7\u005cvt3_code\u005cvt3_lang.c
p86
S'806ccd2e75a99d291663284e9ab25fa2'
p87
sVC:\u005cUsers\u005churdj00\u005cDesktop\u005cHartstra_10041_V0.1\u005ccode\u005cTera_7\u005cvt3_code\u005cvt3_POU__slaveConfigFB_CPU1.h
p88
S'bf7d587fcfb11e681d4bdd8e899303ca'
p89
sVC:\u005cUsers\u005churdj00\u005cDesktop\u005cHartstra_10041_V0.1\u005ccode\u005cTera_7\u005cvt3_code\u005cvt3_POU__WRITE_EL_TO_USB.h
p90
S'c0190e515cc820176bb4d4a16e452b73'
p91
sVC:\u005cUsers\u005churdj00\u005cDesktop\u005cHartstra_10041_V0.1\u005ccode\u005cTera_7\u005cvt3_code\u005cvt3_Event__Splash.h
p92
S'82539d5311c38589470c28d0bd1f89a1'
p93
sVC:\u005cUsers\u005churdj00\u005cDesktop\u005cHartstra_10041_V0.1\u005ccode\u005cTera_7\u005cvt3_code\u005cvt3_POU__WRITE_EL_ENUM.h
p94
S'e27a3ba0649594da92819eca428dfeda'
p95
sVC:\u005cUsers\u005churdj00\u005cDesktop\u005cHartstra_10041_V0.1\u005ccode\u005cTera_7\u005cvt3_code\u005cvt3_BMP__GryButtonStyle1_0_0.h
p96
S'1399adba65e3b4e78ba959714327f2c9'
p97
sVC:\u005cUsers\u005churdj00\u005cDesktop\u005cHartstra_10041_V0.1\u005ccode\u005cTera_7\u005cvt3_code\u005cvt3_POU__slaveConfigFB_CPU1.c
p98
S'5cf2db8f84b7b3219442fdba2b15f3c3'
p99
sVC:\u005cUsers\u005churdj00\u005cDesktop\u005cHartstra_10041_V0.1\u005ccode\u005cTera_7\u005cvt3_code\u005cvt3_disp_common.c
p100
S'2b10691abcb7e62dc9c3a9467896b807'
p101
sVC:\u005cUsers\u005churdj00\u005cDesktop\u005cHartstra_10041_V0.1\u005ccode\u005cTera_7\u005cvt3_code\u005cvt3_disp_common.h
p102
S'd9682153424ccc066a63b3c40f1bc9eb'
p103
sVP:\u005cMobile Controls\u005cCUSTOMERS\u005cHartstra\u005cHartstra_10041_V0.1\u005ccode\u005cTera_7\u005cvt3_code\u005cvt3_POU__splash_data.c
p104
S'831367c3729466e584ad1a15a8c0b6dc'
p105
sVP:\u005cMobile Controls\u005cCUSTOMERS\u005cHartstra\u005cHartstra_10041_V0.1\u005ccode\u005cTera_7\u005cvt3_code\u005cvt3_alarms.c
p106
S'924fb0eff633b8ff56d9a54f1a7f8ed4'
p107
sVC:\u005cUsers\u005churdj00\u005cDesktop\u005cHartstra_10041_V0.1\u005ccode\u005cTera_7\u005cvt3_code\u005cvt3_Disp__Setup.c
p108
S'3edae3bc5cf3a68290d5944684eb42e7'
p109
sVP:\u005cMobile Controls\u005cCUSTOMERS\u005cHartstra\u005cHartstra_10041_V0.1\u005ccode\u005cTera_7\u005cvt3_code\u005cvt3_Event__Setup.h
p110
S'014f6433576b97740c8d658ea2fbf433'
p111
sVP:\u005cMobile Controls\u005cCUSTOMERS\u005cHartstra\u005cHartstra_10041_V0.1\u005ccode\u005cTera_7\u005cvt3_code\u005cvt3_POU__iocore_data.c
p112
S'e22bd8868ad8f87fdab2c083a14e38e3'
p113
sVP:\u005cMobile Controls\u005cCUSTOMERS\u005cHartstra\u005cHartstra_10041_V0.1\u005ccode\u005cTera_7\u005cvt3_code\u005cvt3_POU__PLC_PRG.h
p114
S'1f9f56124d974ed3d859577727aeeef3'
p115
sVC:\u005cUsers\u005churdj00\u005cDesktop\u005cHartstra_10041_V0.1\u005ccode\u005cTera_7\u005cvt3_code\u005cvt3_CAN_common.h
p116
S'5a7dcad396f420054a22da23ceedb260'
p117
sVC:\u005cUsers\u005churdj00\u005cDesktop\u005cHartstra_10041_V0.1\u005ccode\u005cTera_7\u005cvt3_code\u005cvt3_Disp__Setup.h
p118
S'55da64aefb4d80bdefbe4b3c16f7f52f'
p119
sVP:\u005cMobile Controls\u005cCUSTOMERS\u005cHartstra\u005cHartstra_10041_V0.1\u005ccode\u005cTera_7\u005cvt3_code\u005cvt3_alarms.h
p120
S'fe6ff769366d0d1ff417804620480363'
p121
sVP:\u005cMobile Controls\u005cCUSTOMERS\u005cHartstra\u005cHartstra_10041_V0.1\u005ccode\u005cTera_7\u005cvt3_code\u005cvt3_POU__PLC_PRG.c
p122
S'817fb867ffd52e0f8d8d1176be57970a'
p123
sVC:\u005cUsers\u005churdj00\u005cDesktop\u005cHartstra_10041_V0.1\u005ccode\u005cTera_7\u005cvt3_code\u005cvt3_Event__Camera.c
p124
S'8ebcdab00e93d5af7e34fa357f31007b'
p125
sVP:\u005cMobile Controls\u005cCUSTOMERS\u005cHartstra\u005cHartstra_10041_V0.1\u005ccode\u005cTera_7\u005cvt3_code\u005cvt3_Event__Home.c
p126
S'ae4e5e819915071ea266684ea6bf4cba'
p127
sVC:\u005cUsers\u005churdj00\u005cDesktop\u005cHartstra_10041_V0.1\u005ccode\u005cTera_7\u005cvt3_code\u005cvt3_POU__splash_data.c
p128
S'831367c3729466e584ad1a15a8c0b6dc'
p129
sVC:\u005cUsers\u005churdj00\u005cDesktop\u005cHartstra_10041_V0.1\u005ccode\u005cTera_7\u005cvt3_code\u005cvt3_Event__Camera.h
p130
S'4d576ab64fe499422d846239e624add9'
p131
sVP:\u005cMobile Controls\u005cCUSTOMERS\u005cHartstra\u005cHartstra_10041_V0.1\u005ccode\u005cTera_7\u005cvt3_code\u005cvt3_POU__SET_POWER_FAIL_SHUTDOWN.h
p132
S'bc09daf7d5461e1a0ab2cea2e1262bde'
p133
sVC:\u005cUsers\u005churdj00\u005cDesktop\u005cHartstra_10041_V0.1\u005ccode\u005cTera_7\u005cvt3_code\u005cvt3_POU__umountUSB.h
p134
S'0a7a7c4771e3c92265bd5c264629cb7c'
p135
sVP:\u005cMobile Controls\u005cCUSTOMERS\u005cHartstra\u005cHartstra_10041_V0.1\u005ccode\u005cTera_7\u005cvt3_code\u005cvt3_POU__INIT_BYTEARRAY_R.h
p136
S'5df33f87a18e04cca24cfbcb60efff6d'
p137
sVP:\u005cMobile Controls\u005cCUSTOMERS\u005cHartstra\u005cHartstra_10041_V0.1\u005ccode\u005cTera_7\u005cvt3_code\u005cvt3_POU__slaveConfig.h
p138
S'bf079b10366ee781141b3c95541c11ca'
p139
sVP:\u005cMobile Controls\u005cCUSTOMERS\u005cHartstra\u005cHartstra_10041_V0.1\u005ccode\u005cTera_7\u005cvt3_code\u005cvt3_POU__slaveConfigFB_CPU0.h
p140
S'7e0b23c90bfcfdcdd6f178f4dbfe6c66'
p141
sVP:\u005cMobile Controls\u005cCUSTOMERS\u005cHartstra\u005cHartstra_10041_V0.1\u005ccode\u005cTera_7\u005cvt3_code\u005cvt3_POU__slaveConfig.c
p142
S'250282194da6b1fd2d12a0260069806d'
p143
sVP:\u005cMobile Controls\u005cCUSTOMERS\u005cHartstra\u005cHartstra_10041_V0.1\u005ccode\u005cTera_7\u005cvt3_code\u005cvt3_POU__slaveConfigFB_CPU0.c
p144
S'8e10f799a9bff5663a17d9491a8fe8b6'
p145
sVP:\u005cMobile Controls\u005cCUSTOMERS\u005cHartstra\u005cHartstra_10041_V0.1\u005ccode\u005cTera_7\u005cvt3_code\u005cvt3_lang.c
p146
S'806ccd2e75a99d291663284e9ab25fa2'
p147
sVP:\u005cMobile Controls\u005cCUSTOMERS\u005cHartstra\u005cHartstra_10041_V0.1\u005ccode\u005cTera_7\u005cvt3_code\u005cvt3_POU__slaveConfigFB_CPU1.c
p148
S'5cf2db8f84b7b3219442fdba2b15f3c3'
p149
sVP:\u005cMobile Controls\u005cCUSTOMERS\u005cHartstra\u005cHartstra_10041_V0.1\u005ccode\u005cTera_7\u005cvt3_code\u005cvt3_POU__umountSD.h
p150
S'c78a8f025553f187d3d66c99fca1af75'
p151
sVC:\u005cUsers\u005churdj00\u005cDesktop\u005cHartstra_10041_V0.1\u005ccode\u005cTera_7\u005cvt3_code\u005cvt3_POU__req_touchcalibration.h
p152
S'ca983682e3fdc0f466cefe0b40bae1df'
p153
sVP:\u005cMobile Controls\u005cCUSTOMERS\u005cHartstra\u005cHartstra_10041_V0.1\u005ccode\u005cTera_7\u005cvt3_code\u005cvt3_POU.h
p154
S'a6579c7b36ae06babe016f801ddd377a'
p155
sVP:\u005cMobile Controls\u005cCUSTOMERS\u005cHartstra\u005cHartstra_10041_V0.1\u005ccode\u005cTera_7\u005cvt3_code\u005cvt3_POU__umountUSB.h
p156
S'0a7a7c4771e3c92265bd5c264629cb7c'
p157
sVP:\u005cMobile Controls\u005cCUSTOMERS\u005cHartstra\u005cHartstra_10041_V0.1\u005ccode\u005cTera_7\u005cvt3_code\u005cvt3_lang.h
p158
S'a8721b58f9ff16d6cdbdf9f2df45f9fd'
p159
sVC:\u005cUsers\u005churdj00\u005cDesktop\u005cHartstra_10041_V0.1\u005ccode\u005cTera_7\u005cvt3_code\u005cvt3_POU__outputs.h
p160
S'417e291da49adbc702c64a1091396c6b'
p161
sVP:\u005cMobile Controls\u005cCUSTOMERS\u005cHartstra\u005cHartstra_10041_V0.1\u005ccode\u005cTera_7\u005cvt3_code\u005cvt3_BMP__GrnButtonStyle1_0_0.h
p162
S'26de596f5675c33fb5b5239574439e2d'
p163
sVC:\u005cUsers\u005churdj00\u005cDesktop\u005cHartstra_10041_V0.1\u005ccode\u005cTera_7\u005cvt3_code\u005cvt3_POU__mountUSB.h
p164
S'4b9695cd4c7ab715a8531a6aeb27e894'
p165
sVC:\u005cUsers\u005churdj00\u005cDesktop\u005cHartstra_10041_V0.1\u005ccode\u005cTera_7\u005cvt3_code\u005cvt3_POU__get_prj_version_byte.h
p166
S'fb42ebcb2994deaa0c678f0385485fa1'
p167
sVC:\u005cUsers\u005churdj00\u005cDesktop\u005cHartstra_10041_V0.1\u005ccode\u005cTera_7\u005cvt3_code\u005cvt3_POU__outputs.c
p168
S'510a825f532e885164e5f0e743a04c10'
p169
sVC:\u005cUsers\u005churdj00\u005cDesktop\u005cHartstra_10041_V0.1\u005ccode\u005cTera_7\u005cvt3_code\u005cvt3_init_persistent_p_array.c
p170
S'41a674ad1e911293069a51e2a10ced28'
p171
sVC:\u005cUsers\u005churdj00\u005cDesktop\u005cHartstra_10041_V0.1\u005ccode\u005cTera_7\u005cvt3_code\u005cvt3_IO.c
p172
S'ddbc987bc2fecbd3bc3ee3e13380de89'
p173
sVC:\u005cUsers\u005churdj00\u005cDesktop\u005cHartstra_10041_V0.1\u005ccode\u005cTera_7\u005cvt3_code\u005cvt3_Event__ScreenFrame.c
p174
S'a09ba3c3b436ddf656660d690fe83685'
p175
sVP:\u005cMobile Controls\u005cCUSTOMERS\u005cHartstra\u005cHartstra_10041_V0.1\u005ccode\u005cTera_7\u005cvt3_code\u005cvt3_Disp__Home.h
p176
S'59715e79f55018318100f517a2342b0e'
p177
sVC:\u005cUsers\u005churdj00\u005cDesktop\u005cHartstra_10041_V0.1\u005ccode\u005cTera_7\u005cvt3_code\u005cvt3_init_persistent_f_array.c
p178
S'd2643a61ff12c08922325f5a25135faa'
p179
sVP:\u005cMobile Controls\u005cCUSTOMERS\u005cHartstra\u005cHartstra_10041_V0.1\u005ccode\u005cTera_7\u005cvt3_code\u005cvt3_POU__task100.h
p180
S'3fe5ad71eaf99f37093e43adb00712c7'
p181
sVC:\u005cUsers\u005churdj00\u005cDesktop\u005cHartstra_10041_V0.1\u005ccode\u005cTera_7\u005cvt3_code\u005cvt3_init_persistent_f_array.h
p182
S'4961bac531fd7b438c30560dbf5950df'
p183
sVP:\u005cMobile Controls\u005cCUSTOMERS\u005cHartstra\u005cHartstra_10041_V0.1\u005ccode\u005cTera_7\u005cvt3_code\u005cvt3_Disp__Home.c
p184
S'a5ff78d778ea901a403c003cc5257124'
p185
sVC:\u005cUsers\u005churdj00\u005cDesktop\u005cHartstra_10041_V0.1\u005ccode\u005cTera_7\u005cvt3_code\u005cvt3_POU__INIT_BYTEARRAY_R.h
p186
S'5df33f87a18e04cca24cfbcb60efff6d'
p187
sVC:\u005cUsers\u005churdj00\u005cDesktop\u005cHartstra_10041_V0.1\u005ccode\u005cTera_7\u005cvt3_code\u005cvt3_Event__ScreenFrame.h
p188
S'b35c8bbc4863ec4ac3ac49f98234be1c'
p189
sVP:\u005cMobile Controls\u005cCUSTOMERS\u005cHartstra\u005cHartstra_10041_V0.1\u005ccode\u005cTera_7\u005cvt3_code\u005cvt3_POU__task100.c
p190
S'2bf86ac7fe13b29e2f2cd90d23658fdf'
p191
sVP:\u005cMobile Controls\u005cCUSTOMERS\u005cHartstra\u005cHartstra_10041_V0.1\u005ccode\u005cTera_7\u005cvt3_code\u005cvt3_POU.c
p192
S'e45f19b1caf1fd87ed8b9c0a5e283751'
p193
sVC:\u005cUsers\u005churdj00\u005cDesktop\u005cHartstra_10041_V0.1\u005ccode\u005cTera_7\u005cvt3_code\u005cvt3_POU__ST_TRANSLATE.h
p194
S'ad2554746a321871bf7eb15c907c79d9'
p195
sVC:\u005cUsers\u005churdj00\u005cDesktop\u005cHartstra_10041_V0.1\u005ccode\u005cTera_7\u005cvt3_code\u005cvt3_POU__iocore_data.c
p196
S'e22bd8868ad8f87fdab2c083a14e38e3'
p197
sVC:\u005cUsers\u005churdj00\u005cDesktop\u005cHartstra_10041_V0.1\u005ccode\u005cTera_7\u005cvt3_code\u005cvt3_POU__setup_data.h
p198
S'f5c57c650f37a51c317c0b7aae640654'
p199
sVP:\u005cMobile Controls\u005cCUSTOMERS\u005cHartstra\u005cHartstra_10041_V0.1\u005ccode\u005cTera_7\u005cvt3_code\u005cvt3_Event__Camera.h
p200
S'4d576ab64fe499422d846239e624add9'
p201
sVC:\u005cUsers\u005churdj00\u005cDesktop\u005cHartstra_10041_V0.1\u005ccode\u005cTera_7\u005cvt3_code\u005cvt3_POU__setup_data.c
p202
S'5ec975ebafb6a0aae91ab3812cd81c7d'
p203
sVC:\u005cUsers\u005churdj00\u005cDesktop\u005cHartstra_10041_V0.1\u005ccode\u005cTera_7\u005cvt3_code\u005cvt3_POU_string_typedef.h
p204
S'878acfc1d6d7d5859feaefbb3f0f1548'
p205
sVC:\u005cUsers\u005churdj00\u005cDesktop\u005cHartstra_10041_V0.1\u005ccode\u005cTera_7\u005cvt3_code\u005cvt3_POU__iocore_data.h
p206
S'1343d4a622945dc0ed20745d5f00732e'
p207
sVP:\u005cMobile Controls\u005cCUSTOMERS\u005cHartstra\u005cHartstra_10041_V0.1\u005ccode\u005cTera_7\u005cvt3_code\u005cvt3_POU__iocore_data.h
p208
S'1343d4a622945dc0ed20745d5f00732e'
p209
sVP:\u005cMobile Controls\u005cCUSTOMERS\u005cHartstra\u005cHartstra_10041_V0.1\u005ccode\u005cTera_7\u005cvt3_code\u005cvt3_disp.c
p210
S'9be2266030cbcfe50ba8a28ee66eece7'
p211
sVP:\u005cMobile Controls\u005cCUSTOMERS\u005cHartstra\u005cHartstra_10041_V0.1\u005ccode\u005cTera_7\u005cvt3_code\u005cvt3_POU_common.c
p212
S'0ff28b5c825dbf2ca948890c667b9ada'
p213
sVC:\u005cUsers\u005churdj00\u005cDesktop\u005cHartstra_10041_V0.1\u005ccode\u005cTera_7\u005cvt3_code\u005cvt3_POU__usbUpdate.h
p214
S'3f5e759a10e3069777771cdfe1bf7230'
p215
sVP:\u005cMobile Controls\u005cCUSTOMERS\u005cHartstra\u005cHartstra_10041_V0.1\u005ccode\u005cTera_7\u005cvt3_code\u005cvt3_POU__ST_TRANSLATE.h
p216
S'ad2554746a321871bf7eb15c907c79d9'
p217
sVP:\u005cMobile Controls\u005cCUSTOMERS\u005cHartstra\u005cHartstra_10041_V0.1\u005ccode\u005cTera_7\u005cvt3_code\u005cvt3_POU__ARR_BYTE_version.h
p218
S'd47de601d5de58432479f1de0cde1c82'
p219
sVP:\u005cMobile Controls\u005cCUSTOMERS\u005cHartstra\u005cHartstra_10041_V0.1\u005ccode\u005cTera_7\u005cvt3_code\u005cvt3_POU_common.h
p220
S'209d6507df0c407739686d04f8f9888d'
p221
sVC:\u005cUsers\u005churdj00\u005cDesktop\u005cHartstra_10041_V0.1\u005ccode\u005cTera_7\u005cvt3_code\u005cvt3_BMP__BluButtonStyle1_0_0.h
p222
S'1ef78b26f668a658b2f7b009f54003dc'
p223
sVC:\u005cUsers\u005churdj00\u005cDesktop\u005cHartstra_10041_V0.1\u005ccode\u005cTera_7\u005cvt3_code\u005cvt3_vars.c
p224
S'574ab7baf509a2321dfea5b895d2c950'
p225
sVP:\u005cMobile Controls\u005cCUSTOMERS\u005cHartstra\u005cHartstra_10041_V0.1\u005ccode\u005cTera_7\u005cvt3_code\u005cvt3_POU__get_prj_version_byte.h
p226
S'fb42ebcb2994deaa0c678f0385485fa1'
p227
sVC:\u005cUsers\u005churdj00\u005cDesktop\u005cHartstra_10041_V0.1\u005ccode\u005cTera_7\u005cvt3_code\u005cvt3_POU__INIT_SD_USB.h
p228
S'8edab598163e13617dec6af2402f6946'
p229
sVP:\u005cMobile Controls\u005cCUSTOMERS\u005cHartstra\u005cHartstra_10041_V0.1\u005ccode\u005cTera_7\u005cvt3_code\u005cvt3_POU__setup_data.c
p230
S'5ec975ebafb6a0aae91ab3812cd81c7d'
p231
sVP:\u005cMobile Controls\u005cCUSTOMERS\u005cHartstra\u005cHartstra_10041_V0.1\u005ccode\u005cTera_7\u005cvt3_code\u005cvt3_BMP__YlwButtonStyle1_0_0.h
p232
S'7c954ba97a5eaef59669f9bd93a13a88'
p233
sVC:\u005cUsers\u005churdj00\u005cDesktop\u005cHartstra_10041_V0.1\u005ccode\u005cTera_7\u005cvt3_code\u005cvt3_vars.h
p234
S'ec1e146c415582fe964de321abc1e210'
p235
sVP:\u005cMobile Controls\u005cCUSTOMERS\u005cHartstra\u005cHartstra_10041_V0.1\u005ccode\u005cTera_7\u005cvt3_code\u005cvt3_POU__setup_data.h
p236
S'f5c57c650f37a51c317c0b7aae640654'
p237
sVP:\u005cMobile Controls\u005cCUSTOMERS\u005cHartstra\u005cHartstra_10041_V0.1\u005ccode\u005cTera_7\u005cvt3_code\u005cvt3_fonts.h
p238
S'2d4cc764408dc265a605b94c365b1284'
p239
sVC:\u005cUsers\u005churdj00\u005cDesktop\u005cHartstra_10041_V0.1\u005ccode\u005cTera_7\u005cvt3_code\u005cvt3_disp.h
p240
S'303a36c83bab1b63098f5bb344c215e8'
p241
sVC:\u005cUsers\u005churdj00\u005cDesktop\u005cHartstra_10041_V0.1\u005ccode\u005cTera_7\u005cvt3_code\u005cvt3_palette.c
p242
S'e23c9e47ad38f1cdb9528ab6f35fd755'
p243
sVP:\u005cMobile Controls\u005cCUSTOMERS\u005cHartstra\u005cHartstra_10041_V0.1\u005ccode\u005cTera_7\u005cvt3_code\u005cvt3_slaves.c
p244
S'1d50fb0927b3a06b6df02ef6f2ed16ab'
p245
sVP:\u005cMobile Controls\u005cCUSTOMERS\u005cHartstra\u005cHartstra_10041_V0.1\u005ccode\u005cTera_7\u005cvt3_code\u005cvt3_fonts.c
p246
S'59e544d226ae179dd444bd1c6c851d7e'
p247
sVC:\u005cUsers\u005churdj00\u005cDesktop\u005cHartstra_10041_V0.1\u005ccode\u005cTera_7\u005cvt3_code\u005cvt3_POU__splash_data.h
p248
S'06a56c5d97951cdf3f7735cdc55434aa'
p249
sVC:\u005cUsers\u005churdj00\u005cDesktop\u005cHartstra_10041_V0.1\u005ccode\u005cTera_7\u005cvt3_code\u005cvt3_palette.h
p250
S'7c7e08576438bd557f3c8a16226dc059'
p251
sVC:\u005cUsers\u005churdj00\u005cDesktop\u005cHartstra_10041_V0.1\u005ccode\u005cTera_7\u005cvt3_code\u005cvt3_images.h
p252
S'da3920d825848d82e66ab231ae998a99'
p253
sVC:\u005cUsers\u005churdj00\u005cDesktop\u005cHartstra_10041_V0.1\u005ccode\u005cTera_7\u005cvt3_code\u005cvt3_alarms.c
p254
S'924fb0eff633b8ff56d9a54f1a7f8ed4'
p255
sVP:\u005cMobile Controls\u005cCUSTOMERS\u005cHartstra\u005cHartstra_10041_V0.1\u005ccode\u005cTera_7\u005cvt3_code\u005cvt3_disp_events.c
p256
S'b660ab564030d1e0be25114bea24119e'
p257
sVC:\u005cUsers\u005churdj00\u005cDesktop\u005cHartstra_10041_V0.1\u005ccode\u005cTera_7\u005cvt3_code\u005cvt3_Event__Home.c
p258
S'ae4e5e819915071ea266684ea6bf4cba'
p259
sVC:\u005cUsers\u005churdj00\u005cDesktop\u005cHartstra_10041_V0.1\u005ccode\u005cTera_7\u005cvt3_code\u005cvt3_alarms.h
p260
S'fe6ff769366d0d1ff417804620480363'
p261
sVP:\u005cMobile Controls\u005cCUSTOMERS\u005cHartstra\u005cHartstra_10041_V0.1\u005ccode\u005cTera_7\u005cvt3_code\u005cvt3_POU__REBOOT.h
p262
S'8d28313461470d0afae1935a3afce661'
p263
sVC:\u005cUsers\u005churdj00\u005cDesktop\u005cHartstra_10041_V0.1\u005ccode\u005cTera_7\u005cvt3_code\u005cvt3_Event__Home.h
p264
S'af58b1b55414848c66f8aebadb46b81e'
p265
sVC:\u005cUsers\u005churdj00\u005cDesktop\u005cHartstra_10041_V0.1\u005ccode\u005cTera_7\u005cvt3_code\u005cvt3_POU__usbUpdate.c
p266
S'b3857117872991ad521d98f50daac406'
p267
sVC:\u005cUsers\u005churdj00\u005cDesktop\u005cHartstra_10041_V0.1\u005ccode\u005cTera_7\u005cvt3_code\u005cvt3_BMP__GrnButtonStyle1_0_0.h
p268
S'26de596f5675c33fb5b5239574439e2d'
p269
sVP:\u005cMobile Controls\u005cCUSTOMERS\u005cHartstra\u005cHartstra_10041_V0.1\u005ccode\u005cTera_7\u005cvt3_code\u005cvt3_POU__GET_POWER_FAIL.h
p270
S'5d4714165fc4987308149061006f41b0'
p271
sVP:\u005cMobile Controls\u005cCUSTOMERS\u005cHartstra\u005cHartstra_10041_V0.1\u005ccode\u005cTera_7\u005cvt3_code\u005cvt3_palette.c
p272
S'e23c9e47ad38f1cdb9528ab6f35fd755'
p273
sVP:\u005cMobile Controls\u005cCUSTOMERS\u005cHartstra\u005cHartstra_10041_V0.1\u005ccode\u005cTera_7\u005cvt3_code\u005cvt3_POU__BYTE_TO_ASCII.h
p274
S'38cb083d133586d5c3ede0a2bded46b7'
p275
sVP:\u005cMobile Controls\u005cCUSTOMERS\u005cHartstra\u005cHartstra_10041_V0.1\u005ccode\u005cTera_7\u005cvt3_code\u005cvt3_CAN.c
p276
S'51204dc24c4364573301fe86f6f67bea'
p277
sVP:\u005cMobile Controls\u005cCUSTOMERS\u005cHartstra\u005cHartstra_10041_V0.1\u005ccode\u005cTera_7\u005cvt3_code\u005cvt3_Disp__Setup.c
p278
S'3edae3bc5cf3a68290d5944684eb42e7'
p279
sVP:\u005cMobile Controls\u005cCUSTOMERS\u005cHartstra\u005cHartstra_10041_V0.1\u005ccode\u005cTera_7\u005cvt3_code\u005cvt3_POU__interpol.h
p280
S'd692c1ce268a9e801aac9576ba8dcdff'
p281
sVP:\u005cMobile Controls\u005cCUSTOMERS\u005cHartstra\u005cHartstra_10041_V0.1\u005ccode\u005cTera_7\u005cvt3_code\u005cvt3_BMP__HartstraLogo2_0_0.h
p282
S'd4654c783b6b99309eb0c6a7ea13d6d8'
p283
sVP:\u005cMobile Controls\u005cCUSTOMERS\u005cHartstra\u005cHartstra_10041_V0.1\u005ccode\u005cTera_7\u005cvt3_code\u005cvt3_POU__WRITE_EL.h
p284
S'1a5c19894715ccdebdfbdcd51a8c94f0'
p285
sVP:\u005cMobile Controls\u005cCUSTOMERS\u005cHartstra\u005cHartstra_10041_V0.1\u005ccode\u005cTera_7\u005cvt3_code\u005cvt3_palette.h
p286
S'7c7e08576438bd557f3c8a16226dc059'
p287
sVP:\u005cMobile Controls\u005cCUSTOMERS\u005cHartstra\u005cHartstra_10041_V0.1\u005ccode\u005cTera_7\u005cvt3_code\u005cvt3_POU__interpol.c
p288
S'f6e11149bc04c40fe5fcaf31b1231cbf'
p289
sVP:\u005cMobile Controls\u005cCUSTOMERS\u005cHartstra\u005cHartstra_10041_V0.1\u005ccode\u005cTera_7\u005cvt3_code\u005cvt3_Disp__Setup.h
p290
S'55da64aefb4d80bdefbe4b3c16f7f52f'
p291
sVC:\u005cUsers\u005churdj00\u005cDesktop\u005cHartstra_10041_V0.1\u005ccode\u005cTera_7\u005cvt3_code\u005cvt3_CAN__CanInterface.c
p292
S'6af21f4d4e900d9c99c2bf46fe881831'
p293
sVP:\u005cMobile Controls\u005cCUSTOMERS\u005cHartstra\u005cHartstra_10041_V0.1\u005ccode\u005cTera_7\u005cvt3_code\u005cvt3_disp_common.h
p294
S'd9682153424ccc066a63b3c40f1bc9eb'
p295
sVP:\u005cMobile Controls\u005cCUSTOMERS\u005cHartstra\u005cHartstra_10041_V0.1\u005ccode\u005cTera_7\u005cvt3_code\u005cvt3_Event__Home.h
p296
S'af58b1b55414848c66f8aebadb46b81e'
p297
sVC:\u005cUsers\u005churdj00\u005cDesktop\u005cHartstra_10041_V0.1\u005ccode\u005cTera_7\u005cvt3_code\u005cvt3_CAN__CanInterface.h
p298
S'4ba8c93f1ea3ac6c6208bc8f501c7287'
p299
sVC:\u005cUsers\u005churdj00\u005cDesktop\u005cHartstra_10041_V0.1\u005ccode\u005cTera_7\u005cvt3_code\u005cvt3_slaves.c
p300
S'1d50fb0927b3a06b6df02ef6f2ed16ab'
p301
sVC:\u005cUsers\u005churdj00\u005cDesktop\u005cHartstra_10041_V0.1\u005ccode\u005cTera_7\u005cvt3_code\u005cvt3_POU__WRITE_EL_TO_SD.h
p302
S'5a3ec85ee871bb38535cb8f3e9515e31'
p303
sVP:\u005cMobile Controls\u005cCUSTOMERS\u005cHartstra\u005cHartstra_10041_V0.1\u005ccode\u005cTera_7\u005cvt3_code\u005cvt3_POU__lcdSetBlank.h
p304
S'ddfdc2e8d7ed09c43e372876a89df454'
p305
sVC:\u005cUsers\u005churdj00\u005cDesktop\u005cHartstra_10041_V0.1\u005ccode\u005cTera_7\u005cvt3_code\u005cvt3_POU__WRITE_EL_PRIVATE.h
p306
S'28304ebffb0556ce574c9a70b46bcdcd'
p307
sVC:\u005cUsers\u005churdj00\u005cDesktop\u005cHartstra_10041_V0.1\u005ccode\u005cTera_7\u005cvt3_code\u005cvt3_POU__INIT_BYTEARRAY_P.h
p308
S'4c8fa5bc6763c725ee8381222d24a28c'
p309
sVP:\u005cMobile Controls\u005cCUSTOMERS\u005cHartstra\u005cHartstra_10041_V0.1\u005ccode\u005cTera_7\u005cvt3_code\u005cvt3_images.h
p310
S'da3920d825848d82e66ab231ae998a99'
p311
sVC:\u005cUsers\u005churdj00\u005cDesktop\u005cHartstra_10041_V0.1\u005ccode\u005cTera_7\u005cvt3_code\u005cvt3_init_persistent_r_array.h
p312
S'6e2e768d269693560e62c805fccc7da5'
p313
sVC:\u005cUsers\u005churdj00\u005cDesktop\u005cHartstra_10041_V0.1\u005ccode\u005cTera_7\u005cvt3_code\u005cvt3_POU__PLC_PRG.c
p314
S'817fb867ffd52e0f8d8d1176be57970a'
p315
sVP:\u005cMobile Controls\u005cCUSTOMERS\u005cHartstra\u005cHartstra_10041_V0.1\u005ccode\u005cTera_7\u005cvt3_code\u005cvt3_Event__ScreenFrame.c
p316
S'a09ba3c3b436ddf656660d690fe83685'
p317
sVC:\u005cUsers\u005churdj00\u005cDesktop\u005cHartstra_10041_V0.1\u005ccode\u005cTera_7\u005cvt3_code\u005cvt3_Disp__Camera.h
p318
S'eccd4b933efc505b8b9b483a1515e7fa'
p319
sVC:\u005cUsers\u005churdj00\u005cDesktop\u005cHartstra_10041_V0.1\u005ccode\u005cTera_7\u005cvt3_code\u005cvt3_POU__task100.h
p320
S'3fe5ad71eaf99f37093e43adb00712c7'
p321
sVP:\u005cMobile Controls\u005cCUSTOMERS\u005cHartstra\u005cHartstra_10041_V0.1\u005ccode\u005cTera_7\u005cvt3_code\u005cvt3_POU__mountSD.h
p322
S'72dff1ea27086214a335451a0622d46c'
p323
sVC:\u005cUsers\u005churdj00\u005cDesktop\u005cHartstra_10041_V0.1\u005ccode\u005cTera_7\u005cvt3_code\u005cvt3_Disp__Camera.c
p324
S'e0b43fd972085d59e8b2f1f6af976568'
p325
sVC:\u005cUsers\u005churdj00\u005cDesktop\u005cHartstra_10041_V0.1\u005ccode\u005cTera_7\u005cvt3_code\u005cvt3_POU__umountSD.h
p326
S'c78a8f025553f187d3d66c99fca1af75'
p327
sVC:\u005cUsers\u005churdj00\u005cDesktop\u005cHartstra_10041_V0.1\u005ccode\u005cTera_7\u005cvt3_code\u005cvt3_init_persistent_r_array.c
p328
S'68ed6d0171041046035d972b823fe6bf'
p329
sVC:\u005cUsers\u005churdj00\u005cDesktop\u005cHartstra_10041_V0.1\u005ccode\u005cTera_7\u005cvt3_code\u005cvt3_POU__mountSD.h
p330
S'72dff1ea27086214a335451a0622d46c'
p331
sVP:\u005cMobile Controls\u005cCUSTOMERS\u005cHartstra\u005cHartstra_10041_V0.1\u005ccode\u005cTera_7\u005cvt3_code\u005cvt3_init_persistent_r_array.h
p332
S'6e2e768d269693560e62c805fccc7da5'
p333
sVC:\u005cUsers\u005churdj00\u005cDesktop\u005cHartstra_10041_V0.1\u005ccode\u005cTera_7\u005cvt3_code\u005cvt3_init_persistent_p_array.h
p334
S'0af64c3cc4888d6473556f273bc1f64e'
p335
sVC:\u005cUsers\u005churdj00\u005cDesktop\u005cHartstra_10041_V0.1\u005ccode\u005cTera_7\u005cvt3_code\u005cvt3_POU__assignIO.c
p336
S'c3ca1e9b5fbebb15365d8e9e96db2439'
p337
sVP:\u005cMobile Controls\u005cCUSTOMERS\u005cHartstra\u005cHartstra_10041_V0.1\u005ccode\u005cTera_7\u005cvt3_code\u005cvt3_init_persistent_r_array.c
p338
S'68ed6d0171041046035d972b823fe6bf'
p339
sVP:\u005cMobile Controls\u005cCUSTOMERS\u005cHartstra\u005cHartstra_10041_V0.1\u005ccode\u005cTera_7\u005cvt3_code\u005cvt3_BMP__RedButtonStyle1_0_0.h
p340
S'd5046e9cbc94173131f252fa41a33acf'
p341
sVC:\u005cUsers\u005churdj00\u005cDesktop\u005cHartstra_10041_V0.1\u005ccode\u005cTera_7\u005cvt3_code\u005cvt3_POU__assignIO.h
p342
S'b674e5e7034098ea0140e96fd8ebd691'
p343
sVP:\u005cMobile Controls\u005cCUSTOMERS\u005cHartstra\u005cHartstra_10041_V0.1\u005ccode\u005cTera_7\u005cvt3_code\u005cvt3_POU__mountUSB.h
p344
S'4b9695cd4c7ab715a8531a6aeb27e894'
p345
sVC:\u005cUsers\u005churdj00\u005cDesktop\u005cHartstra_10041_V0.1\u005ccode\u005cTera_7\u005cvt3_code\u005cvt3_BMP__HartstraLogo1_0_0.h
p346
S'7ed3418e40475b3060ef49c0390dea9a'
p347
sVP:\u005cMobile Controls\u005cCUSTOMERS\u005cHartstra\u005cHartstra_10041_V0.1\u005ccode\u005cTera_7\u005cvt3_code\u005cvt3_POU__assignIO.h
p348
S'b674e5e7034098ea0140e96fd8ebd691'
p349
sVP:\u005cMobile Controls\u005cCUSTOMERS\u005cHartstra\u005cHartstra_10041_V0.1\u005ccode\u005cTera_7\u005cvt3_code\u005cvt3_POU__INIT_BYTEARRAY_P.h
p350
S'4c8fa5bc6763c725ee8381222d24a28c'
p351
sVP:\u005cMobile Controls\u005cCUSTOMERS\u005cHartstra\u005cHartstra_10041_V0.1\u005ccode\u005cTera_7\u005cvt3_code\u005cvt3_POU__assignIO.c
p352
S'c3ca1e9b5fbebb15365d8e9e96db2439'
p353
sVC:\u005cUsers\u005churdj00\u005cDesktop\u005cHartstra_10041_V0.1\u005ccode\u005cTera_7\u005cvt3_code\u005cvt3_POU__doBrightness.h
p354
S'bd7f0e9533f882db1b8709a3dd583a12'
p355
sVC:\u005cUsers\u005churdj00\u005cDesktop\u005cHartstra_10041_V0.1\u005ccode\u005cTera_7\u005cvt3_code\u005cvt3_POU_common.h
p356
S'209d6507df0c407739686d04f8f9888d'
p357
sVP:\u005cMobile Controls\u005cCUSTOMERS\u005cHartstra\u005cHartstra_10041_V0.1\u005ccode\u005cTera_7\u005cvt3_code\u005cvt3_Disp__Splash.c
p358
S'7201ef9fd1bde156e8b13d64deabd492'
p359
sVP:\u005cMobile Controls\u005cCUSTOMERS\u005cHartstra\u005cHartstra_10041_V0.1\u005ccode\u005cTera_7\u005cvt3_code\u005cvt3_IO.h
p360
S'f0b713b9daa93742b2b221371a7e3ad2'
p361
sVP:\u005cMobile Controls\u005cCUSTOMERS\u005cHartstra\u005cHartstra_10041_V0.1\u005ccode\u005cTera_7\u005cvt3_code\u005cvt3_Disp__Splash.h
p362
S'6d386b7897d6639464bb4f87b98200a4'
p363
sVC:\u005cUsers\u005churdj00\u005cDesktop\u005cHartstra_10041_V0.1\u005ccode\u005cTera_7\u005cvt3_code\u005cvt3_POU_common.c
p364
S'0ff28b5c825dbf2ca948890c667b9ada'
p365
sVC:\u005cUsers\u005churdj00\u005cDesktop\u005cHartstra_10041_V0.1\u005ccode\u005cTera_7\u005cvt3_code\u005cvt3_POU__doBrightness.c
p366
S'12d5db05feb130a14db3ab7d4b8132f4'
p367
sVC:\u005cUsers\u005churdj00\u005cDesktop\u005cHartstra_10041_V0.1\u005ccode\u005cTera_7\u005cvt3_code\u005cvt3_POU__ARR_BYTE_version.h
p368
S'd47de601d5de58432479f1de0cde1c82'
p369
sVP:\u005cMobile Controls\u005cCUSTOMERS\u005cHartstra\u005cHartstra_10041_V0.1\u005ccode\u005cTera_7\u005cvt3_code\u005cvt3_IO.c
p370
S'ddbc987bc2fecbd3bc3ee3e13380de89'
p371
sVP:\u005cMobile Controls\u005cCUSTOMERS\u005cHartstra\u005cHartstra_10041_V0.1\u005ccode\u005cTera_7\u005cvt3_code\u005cvt3_POU__WRITE_EL_PRIVATE.h
p372
S'28304ebffb0556ce574c9a70b46bcdcd'
p373
sVC:\u005cUsers\u005churdj00\u005cDesktop\u005cHartstra_10041_V0.1\u005ccode\u005cTera_7\u005cvt3_code\u005cvt3_Event__Setup.h
p374
S'014f6433576b97740c8d658ea2fbf433'
p375
sVC:\u005cUsers\u005churdj00\u005cDesktop\u005cHartstra_10041_V0.1\u005ccode\u005cTera_7\u005cvt3_code\u005cvt3_Disp__Home.c
p376
S'a5ff78d778ea901a403c003cc5257124'
p377
sVP:\u005cMobile Controls\u005cCUSTOMERS\u005cHartstra\u005cHartstra_10041_V0.1\u005ccode\u005cTera_7\u005cvt3_code\u005cvt3_init_persistent_p_array.h
p378
S'0af64c3cc4888d6473556f273bc1f64e'
p379
sVC:\u005cUsers\u005churdj00\u005cDesktop\u005cHartstra_10041_V0.1\u005ccode\u005cTera_7\u005cvt3_code\u005cvt3_BMP__HartstraLogo2_0_0.h
p380
S'd4654c783b6b99309eb0c6a7ea13d6d8'
p381
sVC:\u005cUsers\u005churdj00\u005cDesktop\u005cHartstra_10041_V0.1\u005ccode\u005cTera_7\u005cvt3_code\u005cvt3_trend_sampling.c
p382
S'4515ec49943d262cae4c828e39dd552d'
p383
sVC:\u005cUsers\u005churdj00\u005cDesktop\u005cHartstra_10041_V0.1\u005ccode\u005cTera_7\u005cvt3_code\u005cvt3_POU__PLC_PRG.h
p384
S'1f9f56124d974ed3d859577727aeeef3'
p385
sVC:\u005cUsers\u005churdj00\u005cDesktop\u005cHartstra_10041_V0.1\u005ccode\u005cTera_7\u005cvt3_code\u005cvt3_Disp__Home.h
p386
S'59715e79f55018318100f517a2342b0e'
p387
sVC:\u005cUsers\u005churdj00\u005cDesktop\u005cHartstra_10041_V0.1\u005ccode\u005cTera_7\u005cvt3_code\u005cvt3_Event__Setup.c
p388
S'412a379f50c6c66d305376cd5272c8b7'
p389
sVP:\u005cMobile Controls\u005cCUSTOMERS\u005cHartstra\u005cHartstra_10041_V0.1\u005ccode\u005cTera_7\u005cvt3_code\u005cvt3_POU__check_touchcalibration.h
p390
S'69001f57502ab238b2778c495da66807'
p391
sVP:\u005cMobile Controls\u005cCUSTOMERS\u005cHartstra\u005cHartstra_10041_V0.1\u005ccode\u005cTera_7\u005cvt3_code\u005cvt3_init_persistent_f_array.h
p392
S'4961bac531fd7b438c30560dbf5950df'
p393
sVC:\u005cUsers\u005churdj00\u005cDesktop\u005cHartstra_10041_V0.1\u005ccode\u005cTera_7\u005cvt3_code\u005cvt3_POU__global_data.c
p394
S'b5c00671f15d63f6dbb69735e918e056'
p395
sVC:\u005cUsers\u005churdj00\u005cDesktop\u005cHartstra_10041_V0.1\u005ccode\u005cTera_7\u005cvt3_code\u005cvt3_POU.c
p396
S'e45f19b1caf1fd87ed8b9c0a5e283751'
p397
sVP:\u005cMobile Controls\u005cCUSTOMERS\u005cHartstra\u005cHartstra_10041_V0.1\u005ccode\u005cTera_7\u005cvt3_code\u005cvt3_POU__req_touchcalibration.h
p398
S'ca983682e3fdc0f466cefe0b40bae1df'
p399
sVC:\u005cUsers\u005churdj00\u005cDesktop\u005cHartstra_10041_V0.1\u005ccode\u005cTera_7\u005cvt3_code\u005cvt3_POU__WRITE_EL.h
p400
S'1a5c19894715ccdebdfbdcd51a8c94f0'
p401
sVP:\u005cMobile Controls\u005cCUSTOMERS\u005cHartstra\u005cHartstra_10041_V0.1\u005ccode\u005cTera_7\u005cvt3_code\u005cvt3_BMP__HartstraLogo1_0_0.h
p402
S'7ed3418e40475b3060ef49c0390dea9a'
p403
sVC:\u005cUsers\u005churdj00\u005cDesktop\u005cHartstra_10041_V0.1\u005ccode\u005cTera_7\u005cvt3_code\u005cvt3_POU__global_data.h
p404
S'fb7dde5f96d993cb8a1fc78dba76af73'
p405
sVC:\u005cUsers\u005churdj00\u005cDesktop\u005cHartstra_10041_V0.1\u005ccode\u005cTera_7\u005cvt3_code\u005cvt3_POU.h
p406
S'a6579c7b36ae06babe016f801ddd377a'
p407
sVP:\u005cMobile Controls\u005cCUSTOMERS\u005cHartstra\u005cHartstra_10041_V0.1\u005ccode\u005cTera_7\u005cvt3_code\u005cvt3_POU__doBrightness.c
p408
S'12d5db05feb130a14db3ab7d4b8132f4'
p409
sVP:\u005cMobile Controls\u005cCUSTOMERS\u005cHartstra\u005cHartstra_10041_V0.1\u005ccode\u005cTera_7\u005cvt3_code\u005cvt3_POU__usbUpdate.c
p410
S'b3857117872991ad521d98f50daac406'
p411
sVP:\u005cMobile Controls\u005cCUSTOMERS\u005cHartstra\u005cHartstra_10041_V0.1\u005ccode\u005cTera_7\u005cvt3_code\u005cvt3_POU__WRITE_EL_ENUM.h
p412
S'e27a3ba0649594da92819eca428dfeda'
p413
sVP:\u005cMobile Controls\u005cCUSTOMERS\u005cHartstra\u005cHartstra_10041_V0.1\u005ccode\u005cTera_7\u005cvt3_code\u005cvt3_Event__Setup.c
p414
S'412a379f50c6c66d305376cd5272c8b7'
p415
sVP:\u005cMobile Controls\u005cCUSTOMERS\u005cHartstra\u005cHartstra_10041_V0.1\u005ccode\u005cTera_7\u005cvt3_code\u005cvt3_POU__doBrightness.h
p416
S'bd7f0e9533f882db1b8709a3dd583a12'
p417
sVP:\u005cMobile Controls\u005cCUSTOMERS\u005cHartstra\u005cHartstra_10041_V0.1\u005ccode\u005cTera_7\u005cvt3_code\u005cvt3_BMP__BluButtonStyle1_0_0.h
p418
S'1ef78b26f668a658b2f7b009f54003dc'
p419
sVP:\u005cMobile Controls\u005cCUSTOMERS\u005cHartstra\u005cHartstra_10041_V0.1\u005ccode\u005cTera_7\u005cvt3_code\u005cvt3_Event__Camera.c
p420
S'8ebcdab00e93d5af7e34fa357f31007b'
p421
sVC:\u005cUsers\u005churdj00\u005cDesktop\u005cHartstra_10041_V0.1\u005ccode\u005cTera_7\u005cvt3_code\u005cvt3_POU__slaveConfig.c
p422
S'250282194da6b1fd2d12a0260069806d'
p423
sVP:\u005cMobile Controls\u005cCUSTOMERS\u005cHartstra\u005cHartstra_10041_V0.1\u005ccode\u005cTera_7\u005cvt3_code\u005cvt3_vars.c
p424
S'574ab7baf509a2321dfea5b895d2c950'
p425
sVC:\u005cUsers\u005churdj00\u005cDesktop\u005cHartstra_10041_V0.1\u005ccode\u005cTera_7\u005cvt3_code\u005cvt3_Disp__Splash.h
p426
S'6d386b7897d6639464bb4f87b98200a4'
p427
sVP:\u005cMobile Controls\u005cCUSTOMERS\u005cHartstra\u005cHartstra_10041_V0.1\u005ccode\u005cTera_7\u005cvt3_code\u005cvt3_Event__Splash.c
p428
S'2fcaccd52543a413b365ddb71cec5fe2'
p429
sVC:\u005cUsers\u005churdj00\u005cDesktop\u005cHartstra_10041_V0.1\u005ccode\u005cTera_7\u005cvt3_code\u005cvt3_Disp__Splash.c
p430
S'7201ef9fd1bde156e8b13d64deabd492'
p431
sVP:\u005cMobile Controls\u005cCUSTOMERS\u005cHartstra\u005cHartstra_10041_V0.1\u005ccode\u005cTera_7\u005cvt3_code\u005cvt3_vars.h
p432
S'ec1e146c415582fe964de321abc1e210'
p433
sVP:\u005cMobile Controls\u005cCUSTOMERS\u005cHartstra\u005cHartstra_10041_V0.1\u005ccode\u005cTera_7\u005cvt3_code\u005cvt3_var_version.c
p434
S'3abc02f2a2605e830eabf7de57ebfdaf'
p435
sVP:\u005cMobile Controls\u005cCUSTOMERS\u005cHartstra\u005cHartstra_10041_V0.1\u005ccode\u005cTera_7\u005cvt3_code\u005cvt3_CAN.h
p436
S'd576274456b16a2977d33b5db3a28e44'
p437
sVP:\u005cMobile Controls\u005cCUSTOMERS\u005cHartstra\u005cHartstra_10041_V0.1\u005ccode\u005cTera_7\u005cvt3_code\u005cvt3_Disp__ScreenFrame.h
p438
S'0d7e10ab595c0247711669e994613b79'
p439
sVP:\u005cMobile Controls\u005cCUSTOMERS\u005cHartstra\u005cHartstra_10041_V0.1\u005ccode\u005cTera_7\u005cvt3_code\u005cvt3_BMP__GryButtonStyle1_0_0.h
p440
S'1399adba65e3b4e78ba959714327f2c9'
p441
sVP:\u005cMobile Controls\u005cCUSTOMERS\u005cHartstra\u005cHartstra_10041_V0.1\u005ccode\u005cTera_7\u005cvt3_code\u005cvt3_Disp__Camera.c
p442
S'e0b43fd972085d59e8b2f1f6af976568'
p443
sVP:\u005cMobile Controls\u005cCUSTOMERS\u005cHartstra\u005cHartstra_10041_V0.1\u005ccode\u005cTera_7\u005cvt3_code\u005cvt3_disp_common.c
p444
S'2b10691abcb7e62dc9c3a9467896b807'
p445
sVC:\u005cUsers\u005churdj00\u005cDesktop\u005cHartstra_10041_V0.1\u005ccode\u005cTera_7\u005cvt3_code\u005cvt3_POU__slaveConfigFB_CPU0.c
p446
S'8e10f799a9bff5663a17d9491a8fe8b6'
p447
sVP:\u005cMobile Controls\u005cCUSTOMERS\u005cHartstra\u005cHartstra_10041_V0.1\u005ccode\u005cTera_7\u005cvt3_code\u005cvt3_Disp__Camera.h
p448
S'eccd4b933efc505b8b9b483a1515e7fa'
p449
sVP:\u005cMobile Controls\u005cCUSTOMERS\u005cHartstra\u005cHartstra_10041_V0.1\u005ccode\u005cTera_7\u005cvt3_code\u005cvt3_Disp__ScreenFrame.c
p450
S'95d24bc69e130e5b5eb0105c9e38febe'
p451
sVP:\u005cMobile Controls\u005cCUSTOMERS\u005cHartstra\u005cHartstra_10041_V0.1\u005ccode\u005cTera_7\u005cvt3_code\u005cvt3_disp.h
p452
S'303a36c83bab1b63098f5bb344c215e8'
p453
sVC:\u005cUsers\u005churdj00\u005cDesktop\u005cHartstra_10041_V0.1\u005ccode\u005cTera_7\u005cvt3_code\u005cvt3_POU__slaveConfigFB_CPU0.h
p454
S'7e0b23c90bfcfdcdd6f178f4dbfe6c66'
p455
sVP:\u005cMobile Controls\u005cCUSTOMERS\u005cHartstra\u005cHartstra_10041_V0.1\u005ccode\u005cTera_7\u005cvt3_code\u005cvt3_init_persistent_p_array.c
p456
S'41a674ad1e911293069a51e2a10ced28'
p457
sVC:\u005cUsers\u005churdj00\u005cDesktop\u005cHartstra_10041_V0.1\u005ccode\u005cTera_7\u005cvt3_code\u005cvt3_POU__SET_POWER_FAIL_SHUTDOWN.h
p458
S'bc09daf7d5461e1a0ab2cea2e1262bde'
p459
sVP:\u005cMobile Controls\u005cCUSTOMERS\u005cHartstra\u005cHartstra_10041_V0.1\u005ccode\u005cTera_7\u005cvt3_code\u005cvt3_POU__outputs.h
p460
S'417e291da49adbc702c64a1091396c6b'
p461
sVC:\u005cUsers\u005churdj00\u005cDesktop\u005cHartstra_10041_V0.1\u005ccode\u005cTera_7\u005cvt3_code\u005cvt3_POU__task100.c
p462
S'2bf86ac7fe13b29e2f2cd90d23658fdf'
p463
sVP:\u005cMobile Controls\u005cCUSTOMERS\u005cHartstra\u005cHartstra_10041_V0.1\u005ccode\u005cTera_7\u005cvt3_code\u005cvt3_POU__outputs.c
p464
S'510a825f532e885164e5f0e743a04c10'
p465
sVC:\u005cUsers\u005churdj00\u005cDesktop\u005cHartstra_10041_V0.1\u005ccode\u005cTera_7\u005cvt3_code\u005cvt3_POU__lcdSetBlank.h
p466
S'ddfdc2e8d7ed09c43e372876a89df454'
p467
sVP:\u005cMobile Controls\u005cCUSTOMERS\u005cHartstra\u005cHartstra_10041_V0.1\u005ccode\u005cTera_7\u005cvt3_code\u005cvt3_POU__INIT_SD_USB.h
p468
S'8edab598163e13617dec6af2402f6946'
p469
sVP:\u005cMobile Controls\u005cCUSTOMERS\u005cHartstra\u005cHartstra_10041_V0.1\u005ccode\u005cTera_7\u005cvt3_code\u005cvt3_POU__slaveConfigFB_CPU1.h
p470
S'bf7d587fcfb11e681d4bdd8e899303ca'
p471
sVP:\u005cMobile Controls\u005cCUSTOMERS\u005cHartstra\u005cHartstra_10041_V0.1\u005ccode\u005cTera_7\u005cvt3_code\u005cvt3_POU__SHUTDOWN.h
p472
S'0d13935e77aae17b2d8b24d5c226330f'
p473
sVC:\u005cUsers\u005churdj00\u005cDesktop\u005cHartstra_10041_V0.1\u005ccode\u005cTera_7\u005cvt3_code\u005cvt3_POU__slaveConfig.h
p474
S'bf079b10366ee781141b3c95541c11ca'
p475
sVP:\u005cMobile Controls\u005cCUSTOMERS\u005cHartstra\u005cHartstra_10041_V0.1\u005ccode\u005cTera_7\u005cvt3_code\u005cvt3_POU_string_typedef.h
p476
S'878acfc1d6d7d5859feaefbb3f0f1548'
p477
s.