(dp1
VC:\u005cUsers\u005cashlc00\u005cDesktop\u005cHartstra\u005cHartstra_10073GrandeFord\u005ccode\u005cTera_7\u005cvt3_code\u005cvt3_POU__ARR_BYTE_version.h
p2
S'd47de601d5de58432479f1de0cde1c82'
p3
sVC:\u005cUsers\u005cashlc00\u005cDesktop\u005cHartstra\u005cHartstra_10073GrandeFord\u005ccode\u005cTera_7\u005cvt3_code\u005cvt3_fonts.c
p4
S'59e544d226ae179dd444bd1c6c851d7e'
p5
sVC:\u005cUsers\u005cashlc00\u005cDesktop\u005cHartstra\u005cHartstra_10073GrandeFord\u005ccode\u005cTera_7\u005cvt3_code\u005cvt3_palette.h
p6
S'7c7e08576438bd557f3c8a16226dc059'
p7
sVC:\u005cUsers\u005cashlc00\u005cDesktop\u005cHartstra\u005cHartstra_10073GrandeFord\u005ccode\u005cTera_7\u005cvt3_code\u005cvt3_Disp__Camera.h
p8
S'ad15effbf7f1d9ecc9e1c03f746f3d0c'
p9
sVC:\u005cUsers\u005cashlc00\u005cDesktop\u005cHartstra\u005cHartstra_10073GrandeFord\u005ccode\u005cTera_7\u005cvt3_code\u005cvt3_init_persistent_f_array.h
p10
S'4961bac531fd7b438c30560dbf5950df'
p11
sVC:\u005cUsers\u005cashlc00\u005cDOCUME~1\u005cHartstra\u005cDALHAR~1\u005cHARTST~2\u005ccode\u005cTera_7\u005cvt3_code\u005cvt3_POU__WRITE_EL_PRIVATE.h
p12
S'28304ebffb0556ce574c9a70b46bcdcd'
p13
sVC:\u005cUsers\u005cashlc00\u005cDesktop\u005cHartstra\u005cHartstra_10073GrandeFord\u005ccode\u005cTera_7\u005cvt3_code\u005cvt3_Disp__Camera.c
p14
S'e52884f3c508d98678d038faa469e538'
p15
sVC:\u005cUsers\u005cashlc00\u005cDesktop\u005cHartstra\u005cHartstra_10073GrandeFord\u005ccode\u005cTera_7\u005cvt3_code\u005cvt3_palette.c
p16
S'e23c9e47ad38f1cdb9528ab6f35fd755'
p17
sVC:\u005cUsers\u005cashlc00\u005cDesktop\u005cHartstra\u005cHartstra_10073GrandeFord\u005ccode\u005cTera_7\u005cvt3_code\u005cvt3_fonts.h
p18
S'2d4cc764408dc265a605b94c365b1284'
p19
sVC:\u005cUsers\u005cashlc00\u005cDesktop\u005cHartstra\u005cHartstra_10073GrandeFord\u005ccode\u005cTera_7\u005cvt3_code\u005cvt3_POU__GET_POWER_FAIL.h
p20
S'5d4714165fc4987308149061006f41b0'
p21
sVC:\u005cUsers\u005cashlc00\u005cDOCUME~1\u005cHartstra\u005cDALHAR~1\u005cHARTST~2\u005ccode\u005cTera_7\u005cvt3_code\u005cvt3_POU.c
p22
S'e45f19b1caf1fd87ed8b9c0a5e283751'
p23
sVC:\u005cUsers\u005cashlc00\u005cDesktop\u005cHartstra\u005cHartstra_10073GrandeFord\u005ccode\u005cTera_7\u005cvt3_code\u005cvt3_init_persistent_f_array.c
p24
S'd2643a61ff12c08922325f5a25135faa'
p25
sVC:\u005cUsers\u005cashlc00\u005cDesktop\u005cHartstra\u005cHartstra_10073GrandeFord\u005ccode\u005cTera_7\u005cvt3_code\u005cvt3_alarms.h
p26
S'fe6ff769366d0d1ff417804620480363'
p27
sVC:\u005cUsers\u005cashlc00\u005cDOCUME~1\u005cHartstra\u005cDALHAR~1\u005cHARTST~2\u005ccode\u005cTera_7\u005cvt3_code\u005cvt3_POU_common.c
p28
S'3727f7447665e871ed731d1fcf3ae062'
p29
sVC:\u005cUsers\u005cashlc00\u005cDOCUME~1\u005cHartstra\u005cDALHAR~1\u005cHARTST~2\u005ccode\u005cTera_7\u005cvt3_code\u005cvt3_disp.c
p30
S'0dd14f8875dcbf526dd0d69df67ff76f'
p31
sVC:\u005cUsers\u005cashlc00\u005cDOCUME~1\u005cHartstra\u005cDALHAR~1\u005cHARTST~2\u005ccode\u005cTera_7\u005cvt3_code\u005cvt3_POU_common.h
p32
S'209d6507df0c407739686d04f8f9888d'
p33
sVC:\u005cUsers\u005cashlc00\u005cDesktop\u005cHartstra\u005cHartstra_10073GrandeFord\u005ccode\u005cTera_7\u005cvt3_code\u005cvt3_alarms.c
p34
S'924fb0eff633b8ff56d9a54f1a7f8ed4'
p35
sVC:\u005cUsers\u005cashlc00\u005cDOCUME~1\u005cHartstra\u005cDALHAR~1\u005cHARTST~2\u005ccode\u005cTera_7\u005cvt3_code\u005cvt3_Disp__Camera2.h
p36
S'0d3b99371fccf80b618084c9c3dc197f'
p37
sVC:\u005cUsers\u005cashlc00\u005cDOCUME~1\u005cHartstra\u005cDALHAR~1\u005cHARTST~2\u005ccode\u005cTera_7\u005cvt3_code\u005cvt3_lang.c
p38
S'806ccd2e75a99d291663284e9ab25fa2'
p39
sVC:\u005cUsers\u005cashlc00\u005cDesktop\u005cHartstra\u005cHartstra_10073GrandeFord\u005ccode\u005cTera_7\u005cvt3_code\u005cvt3_POU__slaveConfig.c
p40
S'250282194da6b1fd2d12a0260069806d'
p41
sVC:\u005cUsers\u005cashlc00\u005cDesktop\u005cHartstra\u005cHartstra_10073GrandeFord\u005ccode\u005cTera_7\u005cvt3_code\u005cvt3_POU__outputs.c
p42
S'ede74136f3074315f05c5b8791f38c43'
p43
sVC:\u005cUsers\u005cashlc00\u005cDesktop\u005cHartstra\u005cHartstra_10073GrandeFord\u005ccode\u005cTera_7\u005cvt3_code\u005cvt3_POU__outputs.h
p44
S'417e291da49adbc702c64a1091396c6b'
p45
sVC:\u005cUsers\u005cashlc00\u005cDesktop\u005cHartstra\u005cHartstra_10073GrandeFord\u005ccode\u005cTera_7\u005cvt3_code\u005cvt3_POU__slaveConfig.h
p46
S'bf079b10366ee781141b3c95541c11ca'
p47
sVC:\u005cUsers\u005cashlc00\u005cDOCUME~1\u005cHartstra\u005cDALHAR~1\u005cHARTST~2\u005ccode\u005cTera_7\u005cvt3_code\u005cvt3_lang.h
p48
S'a8721b58f9ff16d6cdbdf9f2df45f9fd'
p49
sVC:\u005cUsers\u005cashlc00\u005cDOCUME~1\u005cHartstra\u005cDALHAR~1\u005cHARTST~2\u005ccode\u005cTera_7\u005cvt3_code\u005cvt3_Event__Camera.c
p50
S'35fc6ceb27f4b96ad27533a9ae045656'
p51
sVC:\u005cUsers\u005cashlc00\u005cDOCUME~1\u005cHartstra\u005cDALHAR~1\u005cHARTST~2\u005ccode\u005cTera_7\u005cvt3_code\u005cvt3_POU__WRITE_EL_ENUM.h
p52
S'e27a3ba0649594da92819eca428dfeda'
p53
sVC:\u005cUsers\u005cashlc00\u005cDOCUME~1\u005cHartstra\u005cDALHAR~1\u005cHARTST~2\u005ccode\u005cTera_7\u005cvt3_code\u005cvt3_POU_string_typedef.h
p54
S'878acfc1d6d7d5859feaefbb3f0f1548'
p55
sVC:\u005cUsers\u005cashlc00\u005cDesktop\u005cHartstra\u005cHartstra_10073GrandeFord\u005ccode\u005cTera_7\u005cvt3_code\u005cvt3_POU__setup_data.h
p56
S'f5c57c650f37a51c317c0b7aae640654'
p57
sVC:\u005cUsers\u005cashlc00\u005cDOCUME~1\u005cHartstra\u005cDALHAR~1\u005cHARTST~2\u005ccode\u005cTera_7\u005cvt3_code\u005cvt3_POU__PLC_PRG.h
p58
S'1f9f56124d974ed3d859577727aeeef3'
p59
sVC:\u005cUsers\u005cashlc00\u005cDesktop\u005cHartstra\u005cHartstra_10073GrandeFord\u005ccode\u005cTera_7\u005cvt3_code\u005cvt3_POU__setup_data.c
p60
S'5ec975ebafb6a0aae91ab3812cd81c7d'
p61
sVC:\u005cUsers\u005cashlc00\u005cDOCUME~1\u005cHartstra\u005cDALHAR~1\u005cHARTST~2\u005ccode\u005cTera_7\u005cvt3_code\u005cvt3_init_persistent_r_array.c
p62
S'68ed6d0171041046035d972b823fe6bf'
p63
sVC:\u005cUsers\u005cashlc00\u005cDesktop\u005cHartstra\u005cHartstra_10073GrandeFord\u005ccode\u005cTera_7\u005cvt3_code\u005cvt3_init_persistent_p_array.c
p64
S'5856020ff37d4e80adbf66a773c9c9fc'
p65
sVC:\u005cUsers\u005cashlc00\u005cDOCUME~1\u005cHartstra\u005cDALHAR~1\u005cHARTST~2\u005ccode\u005cTera_7\u005cvt3_code\u005cvt3_POU__SET_POWER_FAIL_SHUTDOWN.h
p66
S'bc09daf7d5461e1a0ab2cea2e1262bde'
p67
sVC:\u005cUsers\u005cashlc00\u005cDesktop\u005cHartstra\u005cHartstra_10073GrandeFord\u005ccode\u005cTera_7\u005cvt3_code\u005cvt3_POU__ST_TRANSLATE.h
p68
S'ad2554746a321871bf7eb15c907c79d9'
p69
sVC:\u005cUsers\u005cashlc00\u005cDOCUME~1\u005cHartstra\u005cDALHAR~1\u005cHARTST~2\u005ccode\u005cTera_7\u005cvt3_code\u005cvt3_Event__Camera.h
p70
S'24afebeae292e0690e20ff47a23804e6'
p71
sVC:\u005cUsers\u005cashlc00\u005cDesktop\u005cHartstra\u005cHartstra_10073GrandeFord\u005ccode\u005cTera_7\u005cvt3_code\u005cvt3_init_persistent_p_array.h
p72
S'0af64c3cc4888d6473556f273bc1f64e'
p73
sVC:\u005cUsers\u005cashlc00\u005cDOCUME~1\u005cHartstra\u005cDALHAR~1\u005cHARTST~2\u005ccode\u005cTera_7\u005cvt3_code\u005cvt3_POU__lcdSetBlank.h
p74
S'ddfdc2e8d7ed09c43e372876a89df454'
p75
sVC:\u005cUsers\u005cashlc00\u005cDesktop\u005cHartstra\u005cHartstra_10073GrandeFord\u005ccode\u005cTera_7\u005cvt3_code\u005cvt3_BMP__GrnButtonStyle1_0_0.h
p76
S'26de596f5675c33fb5b5239574439e2d'
p77
sVC:\u005cUsers\u005cashlc00\u005cDOCUME~1\u005cHartstra\u005cDALHAR~1\u005cHARTST~2\u005ccode\u005cTera_7\u005cvt3_code\u005cvt3_POU__REBOOT.h
p78
S'8d28313461470d0afae1935a3afce661'
p79
sVC:\u005cUsers\u005cashlc00\u005cDOCUME~1\u005cHartstra\u005cDALHAR~1\u005cHARTST~2\u005ccode\u005cTera_7\u005cvt3_code\u005cvt3_POU__home_data.c
p80
S'95980268ade8ecbf7867ec73bc6b8739'
p81
sVC:\u005cUsers\u005cashlc00\u005cDOCUME~1\u005cHartstra\u005cDALHAR~1\u005cHARTST~2\u005ccode\u005cTera_7\u005cvt3_code\u005cvt3_POU__outputs.h
p82
S'417e291da49adbc702c64a1091396c6b'
p83
sVC:\u005cUsers\u005cashlc00\u005cDOCUME~1\u005cHartstra\u005cDALHAR~1\u005cHARTST~2\u005ccode\u005cTera_7\u005cvt3_code\u005cvt3_CAN_common.h
p84
S'5a7dcad396f420054a22da23ceedb260'
p85
sVC:\u005cUsers\u005cashlc00\u005cDOCUME~1\u005cHartstra\u005cDALHAR~1\u005cHARTST~2\u005ccode\u005cTera_7\u005cvt3_code\u005cvt3_POU__PLC_PRG.c
p86
S'817fb867ffd52e0f8d8d1176be57970a'
p87
sVC:\u005cUsers\u005cashlc00\u005cDesktop\u005cHartstra\u005cHartstra_10073GrandeFord\u005ccode\u005cTera_7\u005cvt3_code\u005cvt3_POU__iocore_data.c
p88
S'e22bd8868ad8f87fdab2c083a14e38e3'
p89
sVC:\u005cUsers\u005cashlc00\u005cDOCUME~1\u005cHartstra\u005cDALHAR~1\u005cHARTST~2\u005ccode\u005cTera_7\u005cvt3_code\u005cvt3_POU__outputs.c
p90
S'ede74136f3074315f05c5b8791f38c43'
p91
sVC:\u005cUsers\u005cashlc00\u005cDOCUME~1\u005cHartstra\u005cDALHAR~1\u005cHARTST~2\u005ccode\u005cTera_7\u005cvt3_code\u005cvt3_POU__home_data.h
p92
S'f81930e729c7b0af526b7cb29a6f9931'
p93
sVC:\u005cUsers\u005cashlc00\u005cDesktop\u005cHartstra\u005cHartstra_10073GrandeFord\u005ccode\u005cTera_7\u005cvt3_code\u005cvt3_POU__iocore_data.h
p94
S'1343d4a622945dc0ed20745d5f00732e'
p95
sVC:\u005cUsers\u005cashlc00\u005cDesktop\u005cHartstra\u005cHartstra_10073GrandeFord\u005ccode\u005cTera_7\u005cvt3_code\u005cvt3_lang.c
p96
S'806ccd2e75a99d291663284e9ab25fa2'
p97
sVC:\u005cUsers\u005cashlc00\u005cDOCUME~1\u005cHartstra\u005cDALHAR~1\u005cHARTST~2\u005ccode\u005cTera_7\u005cvt3_code\u005cvt3_Disp__Setup.h
p98
S'a1a0147014ae043f4bd619c057d18880'
p99
sVC:\u005cUsers\u005cashlc00\u005cDesktop\u005cHartstra\u005cHartstra_10073GrandeFord\u005ccode\u005cTera_7\u005cvt3_code\u005cvt3_POU_common.c
p100
S'3727f7447665e871ed731d1fcf3ae062'
p101
sVC:\u005cUsers\u005cashlc00\u005cDesktop\u005cHartstra\u005cHartstra_10073GrandeFord\u005ccode\u005cTera_7\u005cvt3_code\u005cvt3_POU__task100.c
p102
S'a25f6d143489cca51df4f86ca6b2dc77'
p103
sVC:\u005cUsers\u005cashlc00\u005cDesktop\u005cHartstra\u005cHartstra_10073GrandeFord\u005ccode\u005cTera_7\u005cvt3_code\u005cvt3_POU_common.h
p104
S'209d6507df0c407739686d04f8f9888d'
p105
sVC:\u005cUsers\u005cashlc00\u005cDOCUME~1\u005cHartstra\u005cDALHAR~1\u005cHARTST~2\u005ccode\u005cTera_7\u005cvt3_code\u005cvt3_Disp__Setup.c
p106
S'9ef62c83b423b82e9103f9297d05f8e7'
p107
sVC:\u005cUsers\u005cashlc00\u005cDOCUME~1\u005cHartstra\u005cDALHAR~1\u005cHARTST~2\u005ccode\u005cTera_7\u005cvt3_code\u005cvt3_disp_events.c
p108
S'd8feb897d0c5d3e5c1c57a9238077d73'
p109
sVC:\u005cUsers\u005cashlc00\u005cDesktop\u005cHartstra\u005cHartstra_10073GrandeFord\u005ccode\u005cTera_7\u005cvt3_code\u005cvt3_POU__task100.h
p110
S'3fe5ad71eaf99f37093e43adb00712c7'
p111
sVC:\u005cUsers\u005cashlc00\u005cDOCUME~1\u005cHartstra\u005cDALHAR~1\u005cHARTST~2\u005ccode\u005cTera_7\u005cvt3_code\u005cvt3_POU__doBrightness.c
p112
S'12d5db05feb130a14db3ab7d4b8132f4'
p113
sVC:\u005cUsers\u005cashlc00\u005cDOCUME~1\u005cHartstra\u005cDALHAR~1\u005cHARTST~2\u005ccode\u005cTera_7\u005cvt3_code\u005cvt3_POU__setup_data.c
p114
S'5ec975ebafb6a0aae91ab3812cd81c7d'
p115
sVC:\u005cUsers\u005cashlc00\u005cDesktop\u005cHartstra\u005cHartstra_10073GrandeFord\u005ccode\u005cTera_7\u005cvt3_code\u005cvt3_var_version.c
p116
S'80d3ba5005a11ae99f1b142f3971c19a'
p117
sVC:\u005cUsers\u005cashlc00\u005cDesktop\u005cHartstra\u005cHartstra_10073GrandeFord\u005ccode\u005cTera_7\u005cvt3_code\u005cvt3_POU.c
p118
S'e45f19b1caf1fd87ed8b9c0a5e283751'
p119
sVC:\u005cUsers\u005cashlc00\u005cDOCUME~1\u005cHartstra\u005cDALHAR~1\u005cHARTST~2\u005ccode\u005cTera_7\u005cvt3_code\u005cvt3_POU__doBrightness.h
p120
S'bd7f0e9533f882db1b8709a3dd583a12'
p121
sVC:\u005cUsers\u005cashlc00\u005cDOCUME~1\u005cHartstra\u005cDALHAR~1\u005cHARTST~2\u005ccode\u005cTera_7\u005cvt3_code\u005cvt3_POU__req_touchcalibration.h
p122
S'ca983682e3fdc0f466cefe0b40bae1df'
p123
sVC:\u005cUsers\u005cashlc00\u005cDOCUME~1\u005cHartstra\u005cDALHAR~1\u005cHARTST~2\u005ccode\u005cTera_7\u005cvt3_code\u005cvt3_CAN.c
p124
S'51204dc24c4364573301fe86f6f67bea'
p125
sVC:\u005cUsers\u005cashlc00\u005cDesktop\u005cHartstra\u005cHartstra_10073GrandeFord\u005ccode\u005cTera_7\u005cvt3_code\u005cvt3_disp_common.h
p126
S'df9e81379d9f7f41b22f3fe1a6656d1b'
p127
sVC:\u005cUsers\u005cashlc00\u005cDOCUME~1\u005cHartstra\u005cDALHAR~1\u005cHARTST~2\u005ccode\u005cTera_7\u005cvt3_code\u005cvt3_POU__umountUSB.h
p128
S'0a7a7c4771e3c92265bd5c264629cb7c'
p129
sVC:\u005cUsers\u005cashlc00\u005cDOCUME~1\u005cHartstra\u005cDALHAR~1\u005cHARTST~2\u005ccode\u005cTera_7\u005cvt3_code\u005cvt3_disp.h
p130
S'9daa7707500df2621658309731a99da4'
p131
sVC:\u005cUsers\u005cashlc00\u005cDesktop\u005cHartstra\u005cHartstra_10073GrandeFord\u005ccode\u005cTera_7\u005cvt3_code\u005cvt3_disp_common.c
p132
S'dc9c78970ec763e131fbe2060d5ce550'
p133
sVC:\u005cUsers\u005cashlc00\u005cDesktop\u005cHartstra\u005cHartstra_10073GrandeFord\u005ccode\u005cTera_7\u005cvt3_code\u005cvt3_CAN.c
p134
S'51204dc24c4364573301fe86f6f67bea'
p135
sVC:\u005cUsers\u005cashlc00\u005cDOCUME~1\u005cHartstra\u005cDALHAR~1\u005cHARTST~2\u005ccode\u005cTera_7\u005cvt3_code\u005cvt3_CAN.h
p136
S'd576274456b16a2977d33b5db3a28e44'
p137
sVC:\u005cUsers\u005cashlc00\u005cDesktop\u005cHartstra\u005cHartstra_10073GrandeFord\u005ccode\u005cTera_7\u005cvt3_code\u005cvt3_POU_string_typedef.h
p138
S'878acfc1d6d7d5859feaefbb3f0f1548'
p139
sVC:\u005cUsers\u005cashlc00\u005cDesktop\u005cHartstra\u005cHartstra_10073GrandeFord\u005ccode\u005cTera_7\u005cvt3_code\u005cvt3_POU__slaveConfigFB_CPU0.c
p140
S'8e10f799a9bff5663a17d9491a8fe8b6'
p141
sVC:\u005cUsers\u005cashlc00\u005cDesktop\u005cHartstra\u005cHartstra_10073GrandeFord\u005ccode\u005cTera_7\u005cvt3_code\u005cvt3_slaves.c
p142
S'1d50fb0927b3a06b6df02ef6f2ed16ab'
p143
sVC:\u005cUsers\u005cashlc00\u005cDesktop\u005cHartstra\u005cHartstra_10073GrandeFord\u005ccode\u005cTera_7\u005cvt3_code\u005cvt3_BMP__BluButtonStyle1_0_0.h
p144
S'1ef78b26f668a658b2f7b009f54003dc'
p145
sVC:\u005cUsers\u005cashlc00\u005cDOCUME~1\u005cHartstra\u005cDALHAR~1\u005cHARTST~2\u005ccode\u005cTera_7\u005cvt3_code\u005cvt3_BMP__GrnButtonStyle1_0_0.h
p146
S'26de596f5675c33fb5b5239574439e2d'
p147
sVC:\u005cUsers\u005cashlc00\u005cDesktop\u005cHartstra\u005cHartstra_10073GrandeFord\u005ccode\u005cTera_7\u005cvt3_code\u005cvt3_POU__slaveConfigFB_CPU0.h
p148
S'7e0b23c90bfcfdcdd6f178f4dbfe6c66'
p149
sVC:\u005cUsers\u005cashlc00\u005cDOCUME~1\u005cHartstra\u005cDALHAR~1\u005cHARTST~2\u005ccode\u005cTera_7\u005cvt3_code\u005cvt3_POU__get_prj_version_byte.h
p150
S'fb42ebcb2994deaa0c678f0385485fa1'
p151
sVC:\u005cUsers\u005cashlc00\u005cDOCUME~1\u005cHartstra\u005cDALHAR~1\u005cHARTST~2\u005ccode\u005cTera_7\u005cvt3_code\u005cvt3_fonts.h
p152
S'2d4cc764408dc265a605b94c365b1284'
p153
sVC:\u005cUsers\u005cashlc00\u005cDOCUME~1\u005cHartstra\u005cDALHAR~1\u005cHARTST~2\u005ccode\u005cTera_7\u005cvt3_code\u005cvt3_POU__check_touchcalibration.h
p154
S'69001f57502ab238b2778c495da66807'
p155
sVC:\u005cUsers\u005cashlc00\u005cDOCUME~1\u005cHartstra\u005cDALHAR~1\u005cHARTST~2\u005ccode\u005cTera_7\u005cvt3_code\u005cvt3_POU__mountUSB.h
p156
S'4b9695cd4c7ab715a8531a6aeb27e894'
p157
sVC:\u005cUsers\u005cashlc00\u005cDOCUME~1\u005cHartstra\u005cDALHAR~1\u005cHARTST~2\u005ccode\u005cTera_7\u005cvt3_code\u005cvt3_fonts.c
p158
S'59e544d226ae179dd444bd1c6c851d7e'
p159
sVC:\u005cUsers\u005cashlc00\u005cDOCUME~1\u005cHartstra\u005cDALHAR~1\u005cHARTST~2\u005ccode\u005cTera_7\u005cvt3_code\u005cvt3_Event__Splash.c
p160
S'b98d7360c7c2c13c30b9d57c66774b60'
p161
sVC:\u005cUsers\u005cashlc00\u005cDesktop\u005cHartstra\u005cHartstra_10073GrandeFord\u005ccode\u005cTera_7\u005cvt3_code\u005cvt3_images.h
p162
S'da3920d825848d82e66ab231ae998a99'
p163
sVC:\u005cUsers\u005cashlc00\u005cDesktop\u005cHartstra\u005cHartstra_10073GrandeFord\u005ccode\u005cTera_7\u005cvt3_code\u005cvt3_POU__usbUpdate.c
p164
S'b3857117872991ad521d98f50daac406'
p165
sVC:\u005cUsers\u005cashlc00\u005cDOCUME~1\u005cHartstra\u005cDALHAR~1\u005cHARTST~2\u005ccode\u005cTera_7\u005cvt3_code\u005cvt3_Event__Home.h
p166
S'f53af44ed63f657db3915c86b560c5b2'
p167
sVC:\u005cUsers\u005cashlc00\u005cDOCUME~1\u005cHartstra\u005cDALHAR~1\u005cHARTST~2\u005ccode\u005cTera_7\u005cvt3_code\u005cvt3_POU__BYTE_TO_ASCII.h
p168
S'38cb083d133586d5c3ede0a2bded46b7'
p169
sVC:\u005cUsers\u005cashlc00\u005cDesktop\u005cHartstra\u005cHartstra_10073GrandeFord\u005ccode\u005cTera_7\u005cvt3_code\u005cvt3_CAN__CanInterface.c
p170
S'7f16ef93261edba354ec41d5bdee863a'
p171
sVC:\u005cUsers\u005cashlc00\u005cDesktop\u005cHartstra\u005cHartstra_10073GrandeFord\u005ccode\u005cTera_7\u005cvt3_code\u005cvt3_Event__Setup.h
p172
S'3d9fa41bdbb7786cce09e052f7af855c'
p173
sVC:\u005cUsers\u005cashlc00\u005cDOCUME~1\u005cHartstra\u005cDALHAR~1\u005cHARTST~2\u005ccode\u005cTera_7\u005cvt3_code\u005cvt3_POU__umountSD.h
p174
S'c78a8f025553f187d3d66c99fca1af75'
p175
sVC:\u005cUsers\u005cashlc00\u005cDOCUME~1\u005cHartstra\u005cDALHAR~1\u005cHARTST~2\u005ccode\u005cTera_7\u005cvt3_code\u005cvt3_POU__usbUpdate.c
p176
S'b3857117872991ad521d98f50daac406'
p177
sVC:\u005cUsers\u005cashlc00\u005cDOCUME~1\u005cHartstra\u005cDALHAR~1\u005cHARTST~2\u005ccode\u005cTera_7\u005cvt3_code\u005cvt3_BMP__HartstraLogo2_0_0.h
p178
S'd4654c783b6b99309eb0c6a7ea13d6d8'
p179
sVC:\u005cUsers\u005cashlc00\u005cDOCUME~1\u005cHartstra\u005cDALHAR~1\u005cHARTST~2\u005ccode\u005cTera_7\u005cvt3_code\u005cvt3_POU.h
p180
S'a6579c7b36ae06babe016f801ddd377a'
p181
sVC:\u005cUsers\u005cashlc00\u005cDesktop\u005cHartstra\u005cHartstra_10073GrandeFord\u005ccode\u005cTera_7\u005cvt3_code\u005cvt3_CAN__CanInterface.h
p182
S'4ba8c93f1ea3ac6c6208bc8f501c7287'
p183
sVC:\u005cUsers\u005cashlc00\u005cDOCUME~1\u005cHartstra\u005cDALHAR~1\u005cHARTST~2\u005ccode\u005cTera_7\u005cvt3_code\u005cvt3_POU__splash_data.c
p184
S'831367c3729466e584ad1a15a8c0b6dc'
p185
sVC:\u005cUsers\u005cashlc00\u005cDOCUME~1\u005cHartstra\u005cDALHAR~1\u005cHARTST~2\u005ccode\u005cTera_7\u005cvt3_code\u005cvt3_alarms.h
p186
S'fe6ff769366d0d1ff417804620480363'
p187
sVC:\u005cUsers\u005cashlc00\u005cDesktop\u005cHartstra\u005cHartstra_10073GrandeFord\u005ccode\u005cTera_7\u005cvt3_code\u005cvt3_Event__Setup.c
p188
S'2e8df5fcbf7bf46ae86d632f9d0b30eb'
p189
sVC:\u005cUsers\u005cashlc00\u005cDesktop\u005cHartstra\u005cHartstra_10073GrandeFord\u005ccode\u005cTera_7\u005cvt3_code\u005cvt3_POU__req_touchcalibration.h
p190
S'ca983682e3fdc0f466cefe0b40bae1df'
p191
sVC:\u005cUsers\u005cashlc00\u005cDOCUME~1\u005cHartstra\u005cDALHAR~1\u005cHARTST~2\u005ccode\u005cTera_7\u005cvt3_code\u005cvt3_Disp__Camera.h
p192
S'ad15effbf7f1d9ecc9e1c03f746f3d0c'
p193
sVC:\u005cUsers\u005cashlc00\u005cDesktop\u005cHartstra\u005cHartstra_10073GrandeFord\u005ccode\u005cTera_7\u005cvt3_code\u005cvt3_BMP__HartstraLogo1_0_0.h
p194
S'7ed3418e40475b3060ef49c0390dea9a'
p195
sVC:\u005cUsers\u005cashlc00\u005cDesktop\u005cHartstra\u005cHartstra_10073GrandeFord\u005ccode\u005cTera_7\u005cvt3_code\u005cvt3_POU__PLC_PRG.c
p196
S'817fb867ffd52e0f8d8d1176be57970a'
p197
sVC:\u005cUsers\u005cashlc00\u005cDOCUME~1\u005cHartstra\u005cDALHAR~1\u005cHARTST~2\u005ccode\u005cTera_7\u005cvt3_code\u005cvt3_POU__setup_data.h
p198
S'f5c57c650f37a51c317c0b7aae640654'
p199
sVC:\u005cUsers\u005cashlc00\u005cDesktop\u005cHartstra\u005cHartstra_10073GrandeFord\u005ccode\u005cTera_7\u005cvt3_code\u005cvt3_Event__Camera2.h
p200
S'1f4b65e6b3cc84b31de23f0668d5427f'
p201
sVC:\u005cUsers\u005cashlc00\u005cDesktop\u005cHartstra\u005cHartstra_10073GrandeFord\u005ccode\u005cTera_7\u005cvt3_code\u005cvt3_disp_events.c
p202
S'd8feb897d0c5d3e5c1c57a9238077d73'
p203
sVC:\u005cUsers\u005cashlc00\u005cDesktop\u005cHartstra\u005cHartstra_10073GrandeFord\u005ccode\u005cTera_7\u005cvt3_code\u005cvt3_trend_sampling.c
p204
S'4515ec49943d262cae4c828e39dd552d'
p205
sVC:\u005cUsers\u005cashlc00\u005cDesktop\u005cHartstra\u005cHartstra_10073GrandeFord\u005ccode\u005cTera_7\u005cvt3_code\u005cvt3_POU__PLC_PRG.h
p206
S'1f9f56124d974ed3d859577727aeeef3'
p207
sVC:\u005cUsers\u005cashlc00\u005cDesktop\u005cHartstra\u005cHartstra_10073GrandeFord\u005ccode\u005cTera_7\u005cvt3_code\u005cvt3_CAN_common.h
p208
S'5a7dcad396f420054a22da23ceedb260'
p209
sVC:\u005cUsers\u005cashlc00\u005cDOCUME~1\u005cHartstra\u005cDALHAR~1\u005cHARTST~2\u005ccode\u005cTera_7\u005cvt3_code\u005cvt3_POU__mountSD.h
p210
S'72dff1ea27086214a335451a0622d46c'
p211
sVC:\u005cUsers\u005cashlc00\u005cDesktop\u005cHartstra\u005cHartstra_10073GrandeFord\u005ccode\u005cTera_7\u005cvt3_code\u005cvt3_POU__INIT_BYTEARRAY_R.h
p212
S'5df33f87a18e04cca24cfbcb60efff6d'
p213
sVC:\u005cUsers\u005cashlc00\u005cDOCUME~1\u005cHartstra\u005cDALHAR~1\u005cHARTST~2\u005ccode\u005cTera_7\u005cvt3_code\u005cvt3_POU__INIT_SD_USB.h
p214
S'8edab598163e13617dec6af2402f6946'
p215
sVC:\u005cUsers\u005cashlc00\u005cDOCUME~1\u005cHartstra\u005cDALHAR~1\u005cHARTST~2\u005ccode\u005cTera_7\u005cvt3_code\u005cvt3_CAN__CanInterface.h
p216
S'4ba8c93f1ea3ac6c6208bc8f501c7287'
p217
sVC:\u005cUsers\u005cashlc00\u005cDOCUME~1\u005cHartstra\u005cDALHAR~1\u005cHARTST~2\u005ccode\u005cTera_7\u005cvt3_code\u005cvt3_POU__task100.h
p218
S'3fe5ad71eaf99f37093e43adb00712c7'
p219
sVC:\u005cUsers\u005cashlc00\u005cDesktop\u005cHartstra\u005cHartstra_10073GrandeFord\u005ccode\u005cTera_7\u005cvt3_code\u005cvt3_POU__INIT_SD_USB.h
p220
S'8edab598163e13617dec6af2402f6946'
p221
sVC:\u005cUsers\u005cashlc00\u005cDesktop\u005cHartstra\u005cHartstra_10073GrandeFord\u005ccode\u005cTera_7\u005cvt3_code\u005cvt3_CAN_common.c
p222
S'dc02149e06a660e797b5902ccd767106'
p223
sVC:\u005cUsers\u005cashlc00\u005cDOCUME~1\u005cHartstra\u005cDALHAR~1\u005cHARTST~2\u005ccode\u005cTera_7\u005cvt3_code\u005cvt3_Disp__Splash.h
p224
S'd2e6dd9a5892697e0ee76d9900a6e582'
p225
sVC:\u005cUsers\u005cashlc00\u005cDOCUME~1\u005cHartstra\u005cDALHAR~1\u005cHARTST~2\u005ccode\u005cTera_7\u005cvt3_code\u005cvt3_BMP__GryButtonStyle1_0_0.h
p226
S'1399adba65e3b4e78ba959714327f2c9'
p227
sVC:\u005cUsers\u005cashlc00\u005cDesktop\u005cHartstra\u005cHartstra_10073GrandeFord\u005ccode\u005cTera_7\u005cvt3_code\u005cvt3_POU__INIT_BYTEARRAY_P.h
p228
S'4c8fa5bc6763c725ee8381222d24a28c'
p229
sVC:\u005cUsers\u005cashlc00\u005cDesktop\u005cHartstra\u005cHartstra_10073GrandeFord\u005ccode\u005cTera_7\u005cvt3_code\u005cvt3_POU__check_touchcalibration.h
p230
S'69001f57502ab238b2778c495da66807'
p231
sVC:\u005cUsers\u005cashlc00\u005cDesktop\u005cHartstra\u005cHartstra_10073GrandeFord\u005ccode\u005cTera_7\u005cvt3_code\u005cvt3_POU__home_data.c
p232
S'95980268ade8ecbf7867ec73bc6b8739'
p233
sVC:\u005cUsers\u005cashlc00\u005cDOCUME~1\u005cHartstra\u005cDALHAR~1\u005cHARTST~2\u005ccode\u005cTera_7\u005cvt3_code\u005cvt3_Disp__Splash.c
p234
S'f3f646623d968e92332ed2c65e5793b4'
p235
sVC:\u005cUsers\u005cashlc00\u005cDesktop\u005cHartstra\u005cHartstra_10073GrandeFord\u005ccode\u005cTera_7\u005cvt3_code\u005cvt3_POU__interpol.h
p236
S'd692c1ce268a9e801aac9576ba8dcdff'
p237
sVC:\u005cUsers\u005cashlc00\u005cDesktop\u005cHartstra\u005cHartstra_10073GrandeFord\u005ccode\u005cTera_7\u005cvt3_code\u005cvt3_BMP__RedButtonStyle1_0_0.h
p238
S'd5046e9cbc94173131f252fa41a33acf'
p239
sVC:\u005cUsers\u005cashlc00\u005cDOCUME~1\u005cHartstra\u005cDALHAR~1\u005cHARTST~2\u005ccode\u005cTera_7\u005cvt3_code\u005cvt3_Event__Camera2.c
p240
S'40f1b90c65405039321036e0406a4d91'
p241
sVC:\u005cUsers\u005cashlc00\u005cDOCUME~1\u005cHartstra\u005cDALHAR~1\u005cHARTST~2\u005ccode\u005cTera_7\u005cvt3_code\u005cvt3_CAN_common.c
p242
S'dc02149e06a660e797b5902ccd767106'
p243
sVC:\u005cUsers\u005cashlc00\u005cDOCUME~1\u005cHartstra\u005cDALHAR~1\u005cHARTST~2\u005ccode\u005cTera_7\u005cvt3_code\u005cvt3_POU__iocore_data.c
p244
S'e22bd8868ad8f87fdab2c083a14e38e3'
p245
sVC:\u005cUsers\u005cashlc00\u005cDOCUME~1\u005cHartstra\u005cDALHAR~1\u005cHARTST~2\u005ccode\u005cTera_7\u005cvt3_code\u005cvt3_Event__Camera2.h
p246
S'1f4b65e6b3cc84b31de23f0668d5427f'
p247
sVC:\u005cUsers\u005cashlc00\u005cDOCUME~1\u005cHartstra\u005cDALHAR~1\u005cHARTST~2\u005ccode\u005cTera_7\u005cvt3_code\u005cvt3_Disp__Camera2.c
p248
S'246e8cc7faec9bc7d501c7ee7a4e565a'
p249
sVC:\u005cUsers\u005cashlc00\u005cDesktop\u005cHartstra\u005cHartstra_10073GrandeFord\u005ccode\u005cTera_7\u005cvt3_code\u005cvt3_POU__global_data.c
p250
S'b5c00671f15d63f6dbb69735e918e056'
p251
sVC:\u005cUsers\u005cashlc00\u005cDOCUME~1\u005cHartstra\u005cDALHAR~1\u005cHARTST~2\u005ccode\u005cTera_7\u005cvt3_code\u005cvt3_POU__global_data.c
p252
S'b5c00671f15d63f6dbb69735e918e056'
p253
sVC:\u005cUsers\u005cashlc00\u005cDesktop\u005cHartstra\u005cHartstra_10073GrandeFord\u005ccode\u005cTera_7\u005cvt3_code\u005cvt3_IO.h
p254
S'f0b713b9daa93742b2b221371a7e3ad2'
p255
sVC:\u005cUsers\u005cashlc00\u005cDesktop\u005cHartstra\u005cHartstra_10073GrandeFord\u005ccode\u005cTera_7\u005cvt3_code\u005cvt3_POU__get_prj_version_byte.h
p256
S'fb42ebcb2994deaa0c678f0385485fa1'
p257
sVC:\u005cUsers\u005cashlc00\u005cDOCUME~1\u005cHartstra\u005cDALHAR~1\u005cHARTST~2\u005ccode\u005cTera_7\u005cvt3_code\u005cvt3_POU__task100.c
p258
S'a25f6d143489cca51df4f86ca6b2dc77'
p259
sVC:\u005cUsers\u005cashlc00\u005cDOCUME~1\u005cHartstra\u005cDALHAR~1\u005cHARTST~2\u005ccode\u005cTera_7\u005cvt3_code\u005cvt3_POU__global_data.h
p260
S'fb7dde5f96d993cb8a1fc78dba76af73'
p261
sVC:\u005cUsers\u005cashlc00\u005cDesktop\u005cHartstra\u005cHartstra_10073GrandeFord\u005ccode\u005cTera_7\u005cvt3_code\u005cvt3_POU__SHUTDOWN.h
p262
S'0d13935e77aae17b2d8b24d5c226330f'
p263
sVC:\u005cUsers\u005cashlc00\u005cDesktop\u005cHartstra\u005cHartstra_10073GrandeFord\u005ccode\u005cTera_7\u005cvt3_code\u005cvt3_POU__global_data.h
p264
S'fb7dde5f96d993cb8a1fc78dba76af73'
p265
sVC:\u005cUsers\u005cashlc00\u005cDesktop\u005cHartstra\u005cHartstra_10073GrandeFord\u005ccode\u005cTera_7\u005cvt3_code\u005cvt3_POU__slaveConfigFB_CPU1.h
p266
S'bf7d587fcfb11e681d4bdd8e899303ca'
p267
sVC:\u005cUsers\u005cashlc00\u005cDesktop\u005cHartstra\u005cHartstra_10073GrandeFord\u005ccode\u005cTera_7\u005cvt3_code\u005cvt3_Disp__Camera2.h
p268
S'0d3b99371fccf80b618084c9c3dc197f'
p269
sVC:\u005cUsers\u005cashlc00\u005cDesktop\u005cHartstra\u005cHartstra_10073GrandeFord\u005ccode\u005cTera_7\u005cvt3_code\u005cvt3_Disp__ScreenFrame.c
p270
S'a601e389b97d3cb19940c9611cedf3e9'
p271
sVC:\u005cUsers\u005cashlc00\u005cDesktop\u005cHartstra\u005cHartstra_10073GrandeFord\u005ccode\u005cTera_7\u005cvt3_code\u005cvt3_POU__WRITE_EL_PRIVATE.h
p272
S'28304ebffb0556ce574c9a70b46bcdcd'
p273
sVC:\u005cUsers\u005cashlc00\u005cDesktop\u005cHartstra\u005cHartstra_10073GrandeFord\u005ccode\u005cTera_7\u005cvt3_code\u005cvt3_POU__assignIO.c
p274
S'c08abdf2fdc9823966247eacbf658d9d'
p275
sVC:\u005cUsers\u005cashlc00\u005cDesktop\u005cHartstra\u005cHartstra_10073GrandeFord\u005ccode\u005cTera_7\u005cvt3_code\u005cvt3_Disp__ScreenFrame.h
p276
S'0d7e10ab595c0247711669e994613b79'
p277
sVC:\u005cUsers\u005cashlc00\u005cDesktop\u005cHartstra\u005cHartstra_10073GrandeFord\u005ccode\u005cTera_7\u005cvt3_code\u005cvt3_Disp__Camera2.c
p278
S'246e8cc7faec9bc7d501c7ee7a4e565a'
p279
sVC:\u005cUsers\u005cashlc00\u005cDesktop\u005cHartstra\u005cHartstra_10073GrandeFord\u005ccode\u005cTera_7\u005cvt3_code\u005cvt3_POU__slaveConfigFB_CPU1.c
p280
S'5cf2db8f84b7b3219442fdba2b15f3c3'
p281
sVC:\u005cUsers\u005cashlc00\u005cDesktop\u005cHartstra\u005cHartstra_10073GrandeFord\u005ccode\u005cTera_7\u005cvt3_code\u005cvt3_POU__assignIO.h
p282
S'b674e5e7034098ea0140e96fd8ebd691'
p283
sVC:\u005cUsers\u005cashlc00\u005cDesktop\u005cHartstra\u005cHartstra_10073GrandeFord\u005ccode\u005cTera_7\u005cvt3_code\u005cvt3_POU.h
p284
S'a6579c7b36ae06babe016f801ddd377a'
p285
sVC:\u005cUsers\u005cashlc00\u005cDOCUME~1\u005cHartstra\u005cDALHAR~1\u005cHARTST~2\u005ccode\u005cTera_7\u005cvt3_code\u005cvt3_Disp__Home.c
p286
S'ff49dc0a9552ba67bc1981b59a70984a'
p287
sVC:\u005cUsers\u005cashlc00\u005cDesktop\u005cHartstra\u005cHartstra_10073GrandeFord\u005ccode\u005cTera_7\u005cvt3_code\u005cvt3_POU__WRITE_EL_ENUM.h
p288
S'e27a3ba0649594da92819eca428dfeda'
p289
sVC:\u005cUsers\u005cashlc00\u005cDesktop\u005cHartstra\u005cHartstra_10073GrandeFord\u005ccode\u005cTera_7\u005cvt3_code\u005cvt3_POU__mountUSB.h
p290
S'4b9695cd4c7ab715a8531a6aeb27e894'
p291
sVC:\u005cUsers\u005cashlc00\u005cDOCUME~1\u005cHartstra\u005cDALHAR~1\u005cHARTST~2\u005ccode\u005cTera_7\u005cvt3_code\u005cvt3_POU__assignIO.h
p292
S'b674e5e7034098ea0140e96fd8ebd691'
p293
sVC:\u005cUsers\u005cashlc00\u005cDOCUME~1\u005cHartstra\u005cDALHAR~1\u005cHARTST~2\u005ccode\u005cTera_7\u005cvt3_code\u005cvt3_POU__GET_POWER_FAIL.h
p294
S'5d4714165fc4987308149061006f41b0'
p295
sVC:\u005cUsers\u005cashlc00\u005cDOCUME~1\u005cHartstra\u005cDALHAR~1\u005cHARTST~2\u005ccode\u005cTera_7\u005cvt3_code\u005cvt3_Disp__Home.h
p296
S'a3f17cb1ba26487bf4b533f608969a17'
p297
sVC:\u005cUsers\u005cashlc00\u005cDOCUME~1\u005cHartstra\u005cDALHAR~1\u005cHARTST~2\u005ccode\u005cTera_7\u005cvt3_code\u005cvt3_POU__assignIO.c
p298
S'c08abdf2fdc9823966247eacbf658d9d'
p299
sVC:\u005cUsers\u005cashlc00\u005cDOCUME~1\u005cHartstra\u005cDALHAR~1\u005cHARTST~2\u005ccode\u005cTera_7\u005cvt3_code\u005cvt3_CAN__CanInterface.c
p300
S'7f16ef93261edba354ec41d5bdee863a'
p301
sVC:\u005cUsers\u005cashlc00\u005cDOCUME~1\u005cHartstra\u005cDALHAR~1\u005cHARTST~2\u005ccode\u005cTera_7\u005cvt3_code\u005cvt3_POU__slaveConfig.h
p302
S'bf079b10366ee781141b3c95541c11ca'
p303
sVC:\u005cUsers\u005cashlc00\u005cDOCUME~1\u005cHartstra\u005cDALHAR~1\u005cHARTST~2\u005ccode\u005cTera_7\u005cvt3_code\u005cvt3_trend_sampling.c
p304
S'4515ec49943d262cae4c828e39dd552d'
p305
sVC:\u005cUsers\u005cashlc00\u005cDOCUME~1\u005cHartstra\u005cDALHAR~1\u005cHARTST~2\u005ccode\u005cTera_7\u005cvt3_code\u005cvt3_POU__slaveConfigFB_CPU1.c
p306
S'5cf2db8f84b7b3219442fdba2b15f3c3'
p307
sVC:\u005cUsers\u005cashlc00\u005cDesktop\u005cHartstra\u005cHartstra_10073GrandeFord\u005ccode\u005cTera_7\u005cvt3_code\u005cvt3_POU__umountUSB.h
p308
S'0a7a7c4771e3c92265bd5c264629cb7c'
p309
sVC:\u005cUsers\u005cashlc00\u005cDOCUME~1\u005cHartstra\u005cDALHAR~1\u005cHARTST~2\u005ccode\u005cTera_7\u005cvt3_code\u005cvt3_init_persistent_f_array.c
p310
S'd2643a61ff12c08922325f5a25135faa'
p311
sVC:\u005cUsers\u005cashlc00\u005cDesktop\u005cHartstra\u005cHartstra_10073GrandeFord\u005ccode\u005cTera_7\u005cvt3_code\u005cvt3_POU__WRITE_EL_TO_SD.h
p312
S'5a3ec85ee871bb38535cb8f3e9515e31'
p313
sVC:\u005cUsers\u005cashlc00\u005cDOCUME~1\u005cHartstra\u005cDALHAR~1\u005cHARTST~2\u005ccode\u005cTera_7\u005cvt3_code\u005cvt3_POU__WRITE_EL_TO_USB.h
p314
S'c0190e515cc820176bb4d4a16e452b73'
p315
sVC:\u005cUsers\u005cashlc00\u005cDOCUME~1\u005cHartstra\u005cDALHAR~1\u005cHARTST~2\u005ccode\u005cTera_7\u005cvt3_code\u005cvt3_vars.c
p316
S'ed1071d1c7509b4e9db99ff431827929'
p317
sVC:\u005cUsers\u005cashlc00\u005cDOCUME~1\u005cHartstra\u005cDALHAR~1\u005cHARTST~2\u005ccode\u005cTera_7\u005cvt3_code\u005cvt3_images.h
p318
S'da3920d825848d82e66ab231ae998a99'
p319
sVC:\u005cUsers\u005cashlc00\u005cDesktop\u005cHartstra\u005cHartstra_10073GrandeFord\u005ccode\u005cTera_7\u005cvt3_code\u005cvt3_disp.h
p320
S'9daa7707500df2621658309731a99da4'
p321
sVC:\u005cUsers\u005cashlc00\u005cDesktop\u005cHartstra\u005cHartstra_10073GrandeFord\u005ccode\u005cTera_7\u005cvt3_code\u005cvt3_POU__splash_data.h
p322
S'06a56c5d97951cdf3f7735cdc55434aa'
p323
sVC:\u005cUsers\u005cashlc00\u005cDesktop\u005cHartstra\u005cHartstra_10073GrandeFord\u005ccode\u005cTera_7\u005cvt3_code\u005cvt3_BMP__YlwButtonStyle1_0_0.h
p324
S'7c954ba97a5eaef59669f9bd93a13a88'
p325
sVC:\u005cUsers\u005cashlc00\u005cDesktop\u005cHartstra\u005cHartstra_10073GrandeFord\u005ccode\u005cTera_7\u005cvt3_code\u005cvt3_POU__REBOOT.h
p326
S'8d28313461470d0afae1935a3afce661'
p327
sVC:\u005cUsers\u005cashlc00\u005cDOCUME~1\u005cHartstra\u005cDALHAR~1\u005cHARTST~2\u005ccode\u005cTera_7\u005cvt3_code\u005cvt3_init_persistent_p_array.c
p328
S'5856020ff37d4e80adbf66a773c9c9fc'
p329
sVC:\u005cUsers\u005cashlc00\u005cDesktop\u005cHartstra\u005cHartstra_10073GrandeFord\u005ccode\u005cTera_7\u005cvt3_code\u005cvt3_Disp__Splash.c
p330
S'f3f646623d968e92332ed2c65e5793b4'
p331
sVC:\u005cUsers\u005cashlc00\u005cDesktop\u005cHartstra\u005cHartstra_10073GrandeFord\u005ccode\u005cTera_7\u005cvt3_code\u005cvt3_POU__splash_data.c
p332
S'831367c3729466e584ad1a15a8c0b6dc'
p333
sVC:\u005cUsers\u005cashlc00\u005cDOCUME~1\u005cHartstra\u005cDALHAR~1\u005cHARTST~2\u005ccode\u005cTera_7\u005cvt3_code\u005cvt3_Disp__ScreenFrame.h
p334
S'0d7e10ab595c0247711669e994613b79'
p335
sVC:\u005cUsers\u005cashlc00\u005cDesktop\u005cHartstra\u005cHartstra_10073GrandeFord\u005ccode\u005cTera_7\u005cvt3_code\u005cvt3_Event__Camera2.c
p336
S'40f1b90c65405039321036e0406a4d91'
p337
sVC:\u005cUsers\u005cashlc00\u005cDOCUME~1\u005cHartstra\u005cDALHAR~1\u005cHARTST~2\u005ccode\u005cTera_7\u005cvt3_code\u005cvt3_init_persistent_p_array.h
p338
S'0af64c3cc4888d6473556f273bc1f64e'
p339
sVC:\u005cUsers\u005cashlc00\u005cDesktop\u005cHartstra\u005cHartstra_10073GrandeFord\u005ccode\u005cTera_7\u005cvt3_code\u005cvt3_Event__Splash.h
p340
S'17ab0e2a699e322908b2f85223eae64e'
p341
sVC:\u005cUsers\u005cashlc00\u005cDOCUME~1\u005cHartstra\u005cDALHAR~1\u005cHARTST~2\u005ccode\u005cTera_7\u005cvt3_code\u005cvt3_POU__slaveConfig.c
p342
S'250282194da6b1fd2d12a0260069806d'
p343
sVC:\u005cUsers\u005cashlc00\u005cDOCUME~1\u005cHartstra\u005cDALHAR~1\u005cHARTST~2\u005ccode\u005cTera_7\u005cvt3_code\u005cvt3_Event__Splash.h
p344
S'17ab0e2a699e322908b2f85223eae64e'
p345
sVC:\u005cUsers\u005cashlc00\u005cDOCUME~1\u005cHartstra\u005cDALHAR~1\u005cHARTST~2\u005ccode\u005cTera_7\u005cvt3_code\u005cvt3_POU__ARR_BYTE_version.h
p346
S'd47de601d5de58432479f1de0cde1c82'
p347
sVC:\u005cUsers\u005cashlc00\u005cDOCUME~1\u005cHartstra\u005cDALHAR~1\u005cHARTST~2\u005ccode\u005cTera_7\u005cvt3_code\u005cvt3_slaves.c
p348
S'1d50fb0927b3a06b6df02ef6f2ed16ab'
p349
sVC:\u005cUsers\u005cashlc00\u005cDesktop\u005cHartstra\u005cHartstra_10073GrandeFord\u005ccode\u005cTera_7\u005cvt3_code\u005cvt3_POU__doBrightness.h
p350
S'bd7f0e9533f882db1b8709a3dd583a12'
p351
sVC:\u005cUsers\u005cashlc00\u005cDOCUME~1\u005cHartstra\u005cDALHAR~1\u005cHARTST~2\u005ccode\u005cTera_7\u005cvt3_code\u005cvt3_POU__usbUpdate.h
p352
S'3f5e759a10e3069777771cdfe1bf7230'
p353
sVC:\u005cUsers\u005cashlc00\u005cDOCUME~1\u005cHartstra\u005cDALHAR~1\u005cHARTST~2\u005ccode\u005cTera_7\u005cvt3_code\u005cvt3_POU__INIT_BYTEARRAY_R.h
p354
S'5df33f87a18e04cca24cfbcb60efff6d'
p355
sVC:\u005cUsers\u005cashlc00\u005cDOCUME~1\u005cHartstra\u005cDALHAR~1\u005cHARTST~2\u005ccode\u005cTera_7\u005cvt3_code\u005cvt3_Event__ScreenFrame.c
p356
S'a09ba3c3b436ddf656660d690fe83685'
p357
sVC:\u005cUsers\u005cashlc00\u005cDesktop\u005cHartstra\u005cHartstra_10073GrandeFord\u005ccode\u005cTera_7\u005cvt3_code\u005cvt3_Event__Camera.h
p358
S'24afebeae292e0690e20ff47a23804e6'
p359
sVC:\u005cUsers\u005cashlc00\u005cDesktop\u005cHartstra\u005cHartstra_10073GrandeFord\u005ccode\u005cTera_7\u005cvt3_code\u005cvt3_POU__doBrightness.c
p360
S'12d5db05feb130a14db3ab7d4b8132f4'
p361
sVC:\u005cUsers\u005cashlc00\u005cDesktop\u005cHartstra\u005cHartstra_10073GrandeFord\u005ccode\u005cTera_7\u005cvt3_code\u005cvt3_POU__interpol.c
p362
S'f6e11149bc04c40fe5fcaf31b1231cbf'
p363
sVC:\u005cUsers\u005cashlc00\u005cDesktop\u005cHartstra\u005cHartstra_10073GrandeFord\u005ccode\u005cTera_7\u005cvt3_code\u005cvt3_Event__Camera.c
p364
S'35fc6ceb27f4b96ad27533a9ae045656'
p365
sVC:\u005cUsers\u005cashlc00\u005cDOCUME~1\u005cHartstra\u005cDALHAR~1\u005cHARTST~2\u005ccode\u005cTera_7\u005cvt3_code\u005cvt3_BMP__YlwButtonStyle1_0_0.h
p366
S'7c954ba97a5eaef59669f9bd93a13a88'
p367
sVC:\u005cUsers\u005cashlc00\u005cDesktop\u005cHartstra\u005cHartstra_10073GrandeFord\u005ccode\u005cTera_7\u005cvt3_code\u005cvt3_CAN.h
p368
S'd576274456b16a2977d33b5db3a28e44'
p369
sVC:\u005cUsers\u005cashlc00\u005cDesktop\u005cHartstra\u005cHartstra_10073GrandeFord\u005ccode\u005cTera_7\u005cvt3_code\u005cvt3_POU__get_prj_version.h
p370
S'a49e34ca22601f3771b1a95024c0c979'
p371
sVC:\u005cUsers\u005cashlc00\u005cDOCUME~1\u005cHartstra\u005cDALHAR~1\u005cHARTST~2\u005ccode\u005cTera_7\u005cvt3_code\u005cvt3_POU__iocore_data.h
p372
S'1343d4a622945dc0ed20745d5f00732e'
p373
sVC:\u005cUsers\u005cashlc00\u005cDOCUME~1\u005cHartstra\u005cDALHAR~1\u005cHARTST~2\u005ccode\u005cTera_7\u005cvt3_code\u005cvt3_POU__splash_data.h
p374
S'06a56c5d97951cdf3f7735cdc55434aa'
p375
sVC:\u005cUsers\u005cashlc00\u005cDesktop\u005cHartstra\u005cHartstra_10073GrandeFord\u005ccode\u005cTera_7\u005cvt3_code\u005cvt3_POU__BYTE_TO_ASCII.h
p376
S'38cb083d133586d5c3ede0a2bded46b7'
p377
sVC:\u005cUsers\u005cashlc00\u005cDOCUME~1\u005cHartstra\u005cDALHAR~1\u005cHARTST~2\u005ccode\u005cTera_7\u005cvt3_code\u005cvt3_IO.c
p378
S'ddbc987bc2fecbd3bc3ee3e13380de89'
p379
sVC:\u005cUsers\u005cashlc00\u005cDOCUME~1\u005cHartstra\u005cDALHAR~1\u005cHARTST~2\u005ccode\u005cTera_7\u005cvt3_code\u005cvt3_BMP__HartstraLogo1_0_0.h
p380
S'7ed3418e40475b3060ef49c0390dea9a'
p381
sVC:\u005cUsers\u005cashlc00\u005cDesktop\u005cHartstra\u005cHartstra_10073GrandeFord\u005ccode\u005cTera_7\u005cvt3_code\u005cvt3_POU__usbUpdate.h
p382
S'3f5e759a10e3069777771cdfe1bf7230'
p383
sVC:\u005cUsers\u005cashlc00\u005cDOCUME~1\u005cHartstra\u005cDALHAR~1\u005cHARTST~2\u005ccode\u005cTera_7\u005cvt3_code\u005cvt3_BMP__RedButtonStyle1_0_0.h
p384
S'd5046e9cbc94173131f252fa41a33acf'
p385
sVC:\u005cUsers\u005cashlc00\u005cDOCUME~1\u005cHartstra\u005cDALHAR~1\u005cHARTST~2\u005ccode\u005cTera_7\u005cvt3_code\u005cvt3_IO.h
p386
S'f0b713b9daa93742b2b221371a7e3ad2'
p387
sVC:\u005cUsers\u005cashlc00\u005cDOCUME~1\u005cHartstra\u005cDALHAR~1\u005cHARTST~2\u005ccode\u005cTera_7\u005cvt3_code\u005cvt3_POU__SHUTDOWN.h
p388
S'0d13935e77aae17b2d8b24d5c226330f'
p389
sVC:\u005cUsers\u005cashlc00\u005cDesktop\u005cHartstra\u005cHartstra_10073GrandeFord\u005ccode\u005cTera_7\u005cvt3_code\u005cvt3_POU__WRITE_EL.h
p390
S'1a5c19894715ccdebdfbdcd51a8c94f0'
p391
sVC:\u005cUsers\u005cashlc00\u005cDOCUME~1\u005cHartstra\u005cDALHAR~1\u005cHARTST~2\u005ccode\u005cTera_7\u005cvt3_code\u005cvt3_init_persistent_f_array.h
p392
S'4961bac531fd7b438c30560dbf5950df'
p393
sVC:\u005cUsers\u005cashlc00\u005cDesktop\u005cHartstra\u005cHartstra_10073GrandeFord\u005ccode\u005cTera_7\u005cvt3_code\u005cvt3_Event__Home.c
p394
S'2674ebe4b7d44c72418a560056d7395e'
p395
sVC:\u005cUsers\u005cashlc00\u005cDOCUME~1\u005cHartstra\u005cDALHAR~1\u005cHARTST~2\u005ccode\u005cTera_7\u005cvt3_code\u005cvt3_Disp__ScreenFrame.c
p396
S'a601e389b97d3cb19940c9611cedf3e9'
p397
sVC:\u005cUsers\u005cashlc00\u005cDOCUME~1\u005cHartstra\u005cDALHAR~1\u005cHARTST~2\u005ccode\u005cTera_7\u005cvt3_code\u005cvt3_POU__slaveConfigFB_CPU1.h
p398
S'bf7d587fcfb11e681d4bdd8e899303ca'
p399
sVC:\u005cUsers\u005cashlc00\u005cDesktop\u005cHartstra\u005cHartstra_10073GrandeFord\u005ccode\u005cTera_7\u005cvt3_code\u005cvt3_POU__home_data.h
p400
S'f81930e729c7b0af526b7cb29a6f9931'
p401
sVC:\u005cUsers\u005cashlc00\u005cDOCUME~1\u005cHartstra\u005cDALHAR~1\u005cHARTST~2\u005ccode\u005cTera_7\u005cvt3_code\u005cvt3_POU__slaveConfigFB_CPU0.h
p402
S'7e0b23c90bfcfdcdd6f178f4dbfe6c66'
p403
sVC:\u005cUsers\u005cashlc00\u005cDOCUME~1\u005cHartstra\u005cDALHAR~1\u005cHARTST~2\u005ccode\u005cTera_7\u005cvt3_code\u005cvt3_Event__ScreenFrame.h
p404
S'b35c8bbc4863ec4ac3ac49f98234be1c'
p405
sVC:\u005cUsers\u005cashlc00\u005cDesktop\u005cHartstra\u005cHartstra_10073GrandeFord\u005ccode\u005cTera_7\u005cvt3_code\u005cvt3_POU__SET_POWER_FAIL_SHUTDOWN.h
p406
S'bc09daf7d5461e1a0ab2cea2e1262bde'
p407
sVC:\u005cUsers\u005cashlc00\u005cDesktop\u005cHartstra\u005cHartstra_10073GrandeFord\u005ccode\u005cTera_7\u005cvt3_code\u005cvt3_Disp__Splash.h
p408
S'd2e6dd9a5892697e0ee76d9900a6e582'
p409
sVC:\u005cUsers\u005cashlc00\u005cDesktop\u005cHartstra\u005cHartstra_10073GrandeFord\u005ccode\u005cTera_7\u005cvt3_code\u005cvt3_Disp__Setup.h
p410
S'a1a0147014ae043f4bd619c057d18880'
p411
sVC:\u005cUsers\u005cashlc00\u005cDesktop\u005cHartstra\u005cHartstra_10073GrandeFord\u005ccode\u005cTera_7\u005cvt3_code\u005cvt3_POU__umountSD.h
p412
S'c78a8f025553f187d3d66c99fca1af75'
p413
sVC:\u005cUsers\u005cashlc00\u005cDesktop\u005cHartstra\u005cHartstra_10073GrandeFord\u005ccode\u005cTera_7\u005cvt3_code\u005cvt3_Disp__Setup.c
p414
S'9ef62c83b423b82e9103f9297d05f8e7'
p415
sVC:\u005cUsers\u005cashlc00\u005cDOCUME~1\u005cHartstra\u005cDALHAR~1\u005cHARTST~2\u005ccode\u005cTera_7\u005cvt3_code\u005cvt3_POU__WRITE_EL_TO_SD.h
p416
S'5a3ec85ee871bb38535cb8f3e9515e31'
p417
sVC:\u005cUsers\u005cashlc00\u005cDesktop\u005cHartstra\u005cHartstra_10073GrandeFord\u005ccode\u005cTera_7\u005cvt3_code\u005cvt3_Event__Splash.c
p418
S'b98d7360c7c2c13c30b9d57c66774b60'
p419
sVC:\u005cUsers\u005cashlc00\u005cDOCUME~1\u005cHartstra\u005cDALHAR~1\u005cHARTST~2\u005ccode\u005cTera_7\u005cvt3_code\u005cvt3_BMP__BluButtonStyle1_0_0.h
p420
S'1ef78b26f668a658b2f7b009f54003dc'
p421
sVC:\u005cUsers\u005cashlc00\u005cDOCUME~1\u005cHartstra\u005cDALHAR~1\u005cHARTST~2\u005ccode\u005cTera_7\u005cvt3_code\u005cvt3_disp_common.c
p422
S'dc9c78970ec763e131fbe2060d5ce550'
p423
sVC:\u005cUsers\u005cashlc00\u005cDesktop\u005cHartstra\u005cHartstra_10073GrandeFord\u005ccode\u005cTera_7\u005cvt3_code\u005cvt3_Event__Home.h
p424
S'f6d3d2b12b63eb9697092fadb392b3f7'
p425
sVC:\u005cUsers\u005cashlc00\u005cDesktop\u005cHartstra\u005cHartstra_10073GrandeFord\u005ccode\u005cTera_7\u005cvt3_code\u005cvt3_BMP__HartstraLogo2_0_0.h
p426
S'd4654c783b6b99309eb0c6a7ea13d6d8'
p427
sVC:\u005cUsers\u005cashlc00\u005cDesktop\u005cHartstra\u005cHartstra_10073GrandeFord\u005ccode\u005cTera_7\u005cvt3_code\u005cvt3_POU__lcdSetBlank.h
p428
S'ddfdc2e8d7ed09c43e372876a89df454'
p429
sVC:\u005cUsers\u005cashlc00\u005cDOCUME~1\u005cHartstra\u005cDALHAR~1\u005cHARTST~2\u005ccode\u005cTera_7\u005cvt3_code\u005cvt3_Event__Setup.c
p430
S'2e8df5fcbf7bf46ae86d632f9d0b30eb'
p431
sVC:\u005cUsers\u005cashlc00\u005cDOCUME~1\u005cHartstra\u005cDALHAR~1\u005cHARTST~2\u005ccode\u005cTera_7\u005cvt3_code\u005cvt3_POU__slaveConfigFB_CPU0.c
p432
S'8e10f799a9bff5663a17d9491a8fe8b6'
p433
sVC:\u005cUsers\u005cashlc00\u005cDOCUME~1\u005cHartstra\u005cDALHAR~1\u005cHARTST~2\u005ccode\u005cTera_7\u005cvt3_code\u005cvt3_POU__INIT_BYTEARRAY_P.h
p434
S'4c8fa5bc6763c725ee8381222d24a28c'
p435
sVC:\u005cUsers\u005cashlc00\u005cDOCUME~1\u005cHartstra\u005cDALHAR~1\u005cHARTST~2\u005ccode\u005cTera_7\u005cvt3_code\u005cvt3_Event__Setup.h
p436
S'3d9fa41bdbb7786cce09e052f7af855c'
p437
sVC:\u005cUsers\u005cashlc00\u005cDOCUME~1\u005cHartstra\u005cDALHAR~1\u005cHARTST~2\u005ccode\u005cTera_7\u005cvt3_code\u005cvt3_init_persistent_r_array.h
p438
S'6e2e768d269693560e62c805fccc7da5'
p439
sVC:\u005cUsers\u005cashlc00\u005cDOCUME~1\u005cHartstra\u005cDALHAR~1\u005cHARTST~2\u005ccode\u005cTera_7\u005cvt3_code\u005cvt3_POU__ST_TRANSLATE.h
p440
S'ad2554746a321871bf7eb15c907c79d9'
p441
sVC:\u005cUsers\u005cashlc00\u005cDesktop\u005cHartstra\u005cHartstra_10073GrandeFord\u005ccode\u005cTera_7\u005cvt3_code\u005cvt3_Disp__Home.h
p442
S'ef2af9646b75d0e8288471d29864ede5'
p443
sVC:\u005cUsers\u005cashlc00\u005cDesktop\u005cHartstra\u005cHartstra_10073GrandeFord\u005ccode\u005cTera_7\u005cvt3_code\u005cvt3_vars.h
p444
S'5b522a26dab90634286fdf78a92db894'
p445
sVC:\u005cUsers\u005cashlc00\u005cDOCUME~1\u005cHartstra\u005cDALHAR~1\u005cHARTST~2\u005ccode\u005cTera_7\u005cvt3_code\u005cvt3_POU__get_prj_version.h
p446
S'a49e34ca22601f3771b1a95024c0c979'
p447
sVC:\u005cUsers\u005cashlc00\u005cDesktop\u005cHartstra\u005cHartstra_10073GrandeFord\u005ccode\u005cTera_7\u005cvt3_code\u005cvt3_vars.c
p448
S'ed1071d1c7509b4e9db99ff431827929'
p449
sVC:\u005cUsers\u005cashlc00\u005cDesktop\u005cHartstra\u005cHartstra_10073GrandeFord\u005ccode\u005cTera_7\u005cvt3_code\u005cvt3_Disp__Home.c
p450
S'c8ad02c6b6c0dea5c34f3b1116cfe0ba'
p451
sVC:\u005cUsers\u005cashlc00\u005cDesktop\u005cHartstra\u005cHartstra_10073GrandeFord\u005ccode\u005cTera_7\u005cvt3_code\u005cvt3_Event__ScreenFrame.h
p452
S'b35c8bbc4863ec4ac3ac49f98234be1c'
p453
sVC:\u005cUsers\u005cashlc00\u005cDOCUME~1\u005cHartstra\u005cDALHAR~1\u005cHARTST~2\u005ccode\u005cTera_7\u005cvt3_code\u005cvt3_vars.h
p454
S'5b522a26dab90634286fdf78a92db894'
p455
sVC:\u005cUsers\u005cashlc00\u005cDesktop\u005cHartstra\u005cHartstra_10073GrandeFord\u005ccode\u005cTera_7\u005cvt3_code\u005cvt3_Event__ScreenFrame.c
p456
S'a09ba3c3b436ddf656660d690fe83685'
p457
sVC:\u005cUsers\u005cashlc00\u005cDesktop\u005cHartstra\u005cHartstra_10073GrandeFord\u005ccode\u005cTera_7\u005cvt3_code\u005cvt3_IO.c
p458
S'ddbc987bc2fecbd3bc3ee3e13380de89'
p459
sVC:\u005cUsers\u005cashlc00\u005cDesktop\u005cHartstra\u005cHartstra_10073GrandeFord\u005ccode\u005cTera_7\u005cvt3_code\u005cvt3_POU__mountSD.h
p460
S'72dff1ea27086214a335451a0622d46c'
p461
sVC:\u005cUsers\u005cashlc00\u005cDOCUME~1\u005cHartstra\u005cDALHAR~1\u005cHARTST~2\u005ccode\u005cTera_7\u005cvt3_code\u005cvt3_Event__Home.c
p462
S'303834db45c242ea2dfad31c94f72a00'
p463
sVC:\u005cUsers\u005cashlc00\u005cDesktop\u005cHartstra\u005cHartstra_10073GrandeFord\u005ccode\u005cTera_7\u005cvt3_code\u005cvt3_lang.h
p464
S'a8721b58f9ff16d6cdbdf9f2df45f9fd'
p465
sVC:\u005cUsers\u005cashlc00\u005cDOCUME~1\u005cHartstra\u005cDALHAR~1\u005cHARTST~2\u005ccode\u005cTera_7\u005cvt3_code\u005cvt3_POU__interpol.h
p466
S'd692c1ce268a9e801aac9576ba8dcdff'
p467
sVC:\u005cUsers\u005cashlc00\u005cDOCUME~1\u005cHartstra\u005cDALHAR~1\u005cHARTST~2\u005ccode\u005cTera_7\u005cvt3_code\u005cvt3_palette.c
p468
S'e23c9e47ad38f1cdb9528ab6f35fd755'
p469
sVC:\u005cUsers\u005cashlc00\u005cDesktop\u005cHartstra\u005cHartstra_10073GrandeFord\u005ccode\u005cTera_7\u005cvt3_code\u005cvt3_BMP__GryButtonStyle1_0_0.h
p470
S'1399adba65e3b4e78ba959714327f2c9'
p471
sVC:\u005cUsers\u005cashlc00\u005cDOCUME~1\u005cHartstra\u005cDALHAR~1\u005cHARTST~2\u005ccode\u005cTera_7\u005cvt3_code\u005cvt3_POU__WRITE_EL.h
p472
S'1a5c19894715ccdebdfbdcd51a8c94f0'
p473
sVC:\u005cUsers\u005cashlc00\u005cDesktop\u005cHartstra\u005cHartstra_10073GrandeFord\u005ccode\u005cTera_7\u005cvt3_code\u005cvt3_disp.c
p474
S'0dd14f8875dcbf526dd0d69df67ff76f'
p475
sVC:\u005cUsers\u005cashlc00\u005cDOCUME~1\u005cHartstra\u005cDALHAR~1\u005cHARTST~2\u005ccode\u005cTera_7\u005cvt3_code\u005cvt3_palette.h
p476
S'7c7e08576438bd557f3c8a16226dc059'
p477
sVC:\u005cUsers\u005cashlc00\u005cDOCUME~1\u005cHartstra\u005cDALHAR~1\u005cHARTST~2\u005ccode\u005cTera_7\u005cvt3_code\u005cvt3_POU__interpol.c
p478
S'f6e11149bc04c40fe5fcaf31b1231cbf'
p479
sVC:\u005cUsers\u005cashlc00\u005cDesktop\u005cHartstra\u005cHartstra_10073GrandeFord\u005ccode\u005cTera_7\u005cvt3_code\u005cvt3_POU__WRITE_EL_TO_USB.h
p480
S'c0190e515cc820176bb4d4a16e452b73'
p481
sVC:\u005cUsers\u005cashlc00\u005cDOCUME~1\u005cHartstra\u005cDALHAR~1\u005cHARTST~2\u005ccode\u005cTera_7\u005cvt3_code\u005cvt3_var_version.c
p482
S'c8add1078a83e0bc85a20fb008886e02'
p483
sVC:\u005cUsers\u005cashlc00\u005cDOCUME~1\u005cHartstra\u005cDALHAR~1\u005cHARTST~2\u005ccode\u005cTera_7\u005cvt3_code\u005cvt3_Disp__Camera.c
p484
S'e52884f3c508d98678d038faa469e538'
p485
sVC:\u005cUsers\u005cashlc00\u005cDesktop\u005cHartstra\u005cHartstra_10073GrandeFord\u005ccode\u005cTera_7\u005cvt3_code\u005cvt3_init_persistent_r_array.c
p486
S'68ed6d0171041046035d972b823fe6bf'
p487
sVC:\u005cUsers\u005cashlc00\u005cDOCUME~1\u005cHartstra\u005cDALHAR~1\u005cHARTST~2\u005ccode\u005cTera_7\u005cvt3_code\u005cvt3_disp_common.h
p488
S'df9e81379d9f7f41b22f3fe1a6656d1b'
p489
sVC:\u005cUsers\u005cashlc00\u005cDesktop\u005cHartstra\u005cHartstra_10073GrandeFord\u005ccode\u005cTera_7\u005cvt3_code\u005cvt3_init_persistent_r_array.h
p490
S'6e2e768d269693560e62c805fccc7da5'
p491
sVC:\u005cUsers\u005cashlc00\u005cDOCUME~1\u005cHartstra\u005cDALHAR~1\u005cHARTST~2\u005ccode\u005cTera_7\u005cvt3_code\u005cvt3_alarms.c
p492
S'924fb0eff633b8ff56d9a54f1a7f8ed4'
p493
s.